
ZZ.elf:     file format elf32-avr

Sections:
Idx Name          Size      VMA       LMA       File off  Algn
  0 .data         000000aa  00800200  00002f9e  00003032  2**0
                  CONTENTS, ALLOC, LOAD, DATA
  1 .text         00002f9e  00000000  00000000  00000094  2**1
                  CONTENTS, ALLOC, LOAD, READONLY, CODE
  2 .bss          000000ac  008002aa  008002aa  000030dc  2**0
                  ALLOC
  3 .comment      00000030  00000000  00000000  000030dc  2**0
                  CONTENTS, READONLY
  4 .note.gnu.avr.deviceinfo 00000040  00000000  00000000  0000310c  2**2
                  CONTENTS, READONLY
  5 .debug_info   00000bbc  00000000  00000000  0000314c  2**0
                  CONTENTS, READONLY, DEBUGGING
  6 .debug_abbrev 00000b1a  00000000  00000000  00003d08  2**0
                  CONTENTS, READONLY, DEBUGGING
  7 .debug_line   000001fa  00000000  00000000  00004822  2**0
                  CONTENTS, READONLY, DEBUGGING
  8 .debug_str    000003e6  00000000  00000000  00004a1c  2**0
                  CONTENTS, READONLY, DEBUGGING

Disassembly of section .text:

00000000 <__vectors>:
       0:	9b c0       	rjmp	.+310    	; 0x138 <__ctors_end>
       2:	00 00       	nop
       4:	ca c0       	rjmp	.+404    	; 0x19a <__bad_interrupt>
       6:	00 00       	nop
       8:	c8 c0       	rjmp	.+400    	; 0x19a <__bad_interrupt>
       a:	00 00       	nop
       c:	c6 c0       	rjmp	.+396    	; 0x19a <__bad_interrupt>
       e:	00 00       	nop
      10:	c4 c0       	rjmp	.+392    	; 0x19a <__bad_interrupt>
      12:	00 00       	nop
      14:	c2 c0       	rjmp	.+388    	; 0x19a <__bad_interrupt>
      16:	00 00       	nop
      18:	c0 c0       	rjmp	.+384    	; 0x19a <__bad_interrupt>
      1a:	00 00       	nop
      1c:	be c0       	rjmp	.+380    	; 0x19a <__bad_interrupt>
      1e:	00 00       	nop
      20:	bc c0       	rjmp	.+376    	; 0x19a <__bad_interrupt>
      22:	00 00       	nop
      24:	ba c0       	rjmp	.+372    	; 0x19a <__bad_interrupt>
      26:	00 00       	nop
      28:	b8 c0       	rjmp	.+368    	; 0x19a <__bad_interrupt>
      2a:	00 00       	nop
      2c:	0c 94 c1 13 	jmp	0x2782	; 0x2782 <__vector_11>
      30:	b4 c0       	rjmp	.+360    	; 0x19a <__bad_interrupt>
      32:	00 00       	nop
      34:	b2 c0       	rjmp	.+356    	; 0x19a <__bad_interrupt>
      36:	00 00       	nop
      38:	b0 c0       	rjmp	.+352    	; 0x19a <__bad_interrupt>
      3a:	00 00       	nop
      3c:	ae c0       	rjmp	.+348    	; 0x19a <__bad_interrupt>
      3e:	00 00       	nop
      40:	ac c0       	rjmp	.+344    	; 0x19a <__bad_interrupt>
      42:	00 00       	nop
      44:	aa c0       	rjmp	.+340    	; 0x19a <__bad_interrupt>
      46:	00 00       	nop
      48:	a8 c0       	rjmp	.+336    	; 0x19a <__bad_interrupt>
      4a:	00 00       	nop
      4c:	a6 c0       	rjmp	.+332    	; 0x19a <__bad_interrupt>
      4e:	00 00       	nop
      50:	a4 c0       	rjmp	.+328    	; 0x19a <__bad_interrupt>
      52:	00 00       	nop
      54:	b7 c7       	rjmp	.+3950   	; 0xfc4 <__vector_21>
      56:	00 00       	nop
      58:	a0 c0       	rjmp	.+320    	; 0x19a <__bad_interrupt>
      5a:	00 00       	nop
      5c:	9e c0       	rjmp	.+316    	; 0x19a <__bad_interrupt>
      5e:	00 00       	nop
      60:	9c c0       	rjmp	.+312    	; 0x19a <__bad_interrupt>
      62:	00 00       	nop
      64:	9a c0       	rjmp	.+308    	; 0x19a <__bad_interrupt>
      66:	00 00       	nop
      68:	98 c0       	rjmp	.+304    	; 0x19a <__bad_interrupt>
      6a:	00 00       	nop
      6c:	96 c0       	rjmp	.+300    	; 0x19a <__bad_interrupt>
      6e:	00 00       	nop
      70:	94 c0       	rjmp	.+296    	; 0x19a <__bad_interrupt>
      72:	00 00       	nop
      74:	92 c0       	rjmp	.+292    	; 0x19a <__bad_interrupt>
      76:	00 00       	nop
      78:	90 c0       	rjmp	.+288    	; 0x19a <__bad_interrupt>
      7a:	00 00       	nop
      7c:	8e c0       	rjmp	.+284    	; 0x19a <__bad_interrupt>
      7e:	00 00       	nop
      80:	0c 94 8a 11 	jmp	0x2314	; 0x2314 <__vector_32>
      84:	8a c0       	rjmp	.+276    	; 0x19a <__bad_interrupt>
      86:	00 00       	nop
      88:	88 c0       	rjmp	.+272    	; 0x19a <__bad_interrupt>
      8a:	00 00       	nop
      8c:	86 c0       	rjmp	.+268    	; 0x19a <__bad_interrupt>
      8e:	00 00       	nop
      90:	84 c0       	rjmp	.+264    	; 0x19a <__bad_interrupt>
      92:	00 00       	nop
      94:	82 c0       	rjmp	.+260    	; 0x19a <__bad_interrupt>
      96:	00 00       	nop
      98:	80 c0       	rjmp	.+256    	; 0x19a <__bad_interrupt>
      9a:	00 00       	nop
      9c:	7e c0       	rjmp	.+252    	; 0x19a <__bad_interrupt>
      9e:	00 00       	nop
      a0:	7c c0       	rjmp	.+248    	; 0x19a <__bad_interrupt>
      a2:	00 00       	nop
      a4:	7a c0       	rjmp	.+244    	; 0x19a <__bad_interrupt>
      a6:	00 00       	nop
      a8:	78 c0       	rjmp	.+240    	; 0x19a <__bad_interrupt>
      aa:	00 00       	nop
      ac:	76 c0       	rjmp	.+236    	; 0x19a <__bad_interrupt>
      ae:	00 00       	nop
      b0:	74 c0       	rjmp	.+232    	; 0x19a <__bad_interrupt>
      b2:	00 00       	nop
      b4:	72 c0       	rjmp	.+228    	; 0x19a <__bad_interrupt>
      b6:	00 00       	nop
      b8:	70 c0       	rjmp	.+224    	; 0x19a <__bad_interrupt>
      ba:	00 00       	nop
      bc:	6e c0       	rjmp	.+220    	; 0x19a <__bad_interrupt>
      be:	00 00       	nop
      c0:	6c c0       	rjmp	.+216    	; 0x19a <__bad_interrupt>
      c2:	00 00       	nop
      c4:	6a c0       	rjmp	.+212    	; 0x19a <__bad_interrupt>
      c6:	00 00       	nop
      c8:	68 c0       	rjmp	.+208    	; 0x19a <__bad_interrupt>
      ca:	00 00       	nop
      cc:	66 c0       	rjmp	.+204    	; 0x19a <__bad_interrupt>
      ce:	00 00       	nop
      d0:	64 c0       	rjmp	.+200    	; 0x19a <__bad_interrupt>
      d2:	00 00       	nop
      d4:	62 c0       	rjmp	.+196    	; 0x19a <__bad_interrupt>
      d6:	00 00       	nop
      d8:	60 c0       	rjmp	.+192    	; 0x19a <__bad_interrupt>
      da:	00 00       	nop
      dc:	5e c0       	rjmp	.+188    	; 0x19a <__bad_interrupt>
      de:	00 00       	nop
      e0:	5c c0       	rjmp	.+184    	; 0x19a <__bad_interrupt>
	...

000000e4 <prvIdleTask>:
      e4:	80 91 e8 02 	lds	r24, 0x02E8	; 0x8002e8 <uxDeletedTasksWaitingCleanUp>
      e8:	88 23       	and	r24, r24
      ea:	f1 f0       	breq	.+60     	; 0x128 <prvIdleTask+0x44>
      ec:	0f b6       	in	r0, 0x3f	; 63
      ee:	f8 94       	cli
      f0:	0f 92       	push	r0
      f2:	e0 91 ee 02 	lds	r30, 0x02EE	; 0x8002ee <xTasksWaitingTermination+0x5>
      f6:	f0 91 ef 02 	lds	r31, 0x02EF	; 0x8002ef <xTasksWaitingTermination+0x6>
      fa:	c6 81       	ldd	r28, Z+6	; 0x06
      fc:	d7 81       	ldd	r29, Z+7	; 0x07
      fe:	ce 01       	movw	r24, r28
     100:	02 96       	adiw	r24, 0x02	; 2
     102:	2a d6       	rcall	.+3156   	; 0xd58 <uxListRemove>
     104:	80 91 de 02 	lds	r24, 0x02DE	; 0x8002de <uxCurrentNumberOfTasks>
     108:	81 50       	subi	r24, 0x01	; 1
     10a:	80 93 de 02 	sts	0x02DE, r24	; 0x8002de <uxCurrentNumberOfTasks>
     10e:	80 91 e8 02 	lds	r24, 0x02E8	; 0x8002e8 <uxDeletedTasksWaitingCleanUp>
     112:	81 50       	subi	r24, 0x01	; 1
     114:	80 93 e8 02 	sts	0x02E8, r24	; 0x8002e8 <uxDeletedTasksWaitingCleanUp>
     118:	0f 90       	pop	r0
     11a:	0f be       	out	0x3f, r0	; 63
     11c:	8f 89       	ldd	r24, Y+23	; 0x17
     11e:	98 8d       	ldd	r25, Y+24	; 0x18
     120:	a1 d5       	rcall	.+2882   	; 0xc64 <vPortFree>
     122:	ce 01       	movw	r24, r28
     124:	9f d5       	rcall	.+2878   	; 0xc64 <vPortFree>
     126:	de cf       	rjmp	.-68     	; 0xe4 <prvIdleTask>
     128:	80 91 11 03 	lds	r24, 0x0311	; 0x800311 <pxReadyTasksLists>
     12c:	82 30       	cpi	r24, 0x02	; 2
     12e:	d0 f2       	brcs	.-76     	; 0xe4 <prvIdleTask>
     130:	87 d6       	rcall	.+3342   	; 0xe40 <vPortYield>
     132:	d8 cf       	rjmp	.-80     	; 0xe4 <prvIdleTask>

00000134 <__ctors_start>:
     134:	13 06       	cpc	r1, r19
     136:	1f 10       	cpse	r1, r15

00000138 <__ctors_end>:
     138:	11 24       	eor	r1, r1
     13a:	1f be       	out	0x3f, r1	; 63
     13c:	cf ef       	ldi	r28, 0xFF	; 255
     13e:	d1 e2       	ldi	r29, 0x21	; 33
     140:	de bf       	out	0x3e, r29	; 62
     142:	cd bf       	out	0x3d, r28	; 61
     144:	00 e0       	ldi	r16, 0x00	; 0
     146:	0c bf       	out	0x3c, r16	; 60

00000148 <__do_copy_data>:
     148:	12 e0       	ldi	r17, 0x02	; 2
     14a:	a0 e0       	ldi	r26, 0x00	; 0
     14c:	b2 e0       	ldi	r27, 0x02	; 2
     14e:	ee e9       	ldi	r30, 0x9E	; 158
     150:	ff e2       	ldi	r31, 0x2F	; 47
     152:	00 e0       	ldi	r16, 0x00	; 0
     154:	0b bf       	out	0x3b, r16	; 59
     156:	02 c0       	rjmp	.+4      	; 0x15c <__do_copy_data+0x14>
     158:	07 90       	elpm	r0, Z+
     15a:	0d 92       	st	X+, r0
     15c:	aa 3a       	cpi	r26, 0xAA	; 170
     15e:	b1 07       	cpc	r27, r17
     160:	d9 f7       	brne	.-10     	; 0x158 <__do_copy_data+0x10>

00000162 <__do_clear_bss>:
     162:	23 e0       	ldi	r18, 0x03	; 3
     164:	aa ea       	ldi	r26, 0xAA	; 170
     166:	b2 e0       	ldi	r27, 0x02	; 2
     168:	01 c0       	rjmp	.+2      	; 0x16c <.do_clear_bss_start>

0000016a <.do_clear_bss_loop>:
     16a:	1d 92       	st	X+, r1

0000016c <.do_clear_bss_start>:
     16c:	a6 35       	cpi	r26, 0x56	; 86
     16e:	b2 07       	cpc	r27, r18
     170:	e1 f7       	brne	.-8      	; 0x16a <.do_clear_bss_loop>

00000172 <__do_global_ctors>:
     172:	10 e0       	ldi	r17, 0x00	; 0
     174:	cc e9       	ldi	r28, 0x9C	; 156
     176:	d0 e0       	ldi	r29, 0x00	; 0
     178:	00 e0       	ldi	r16, 0x00	; 0
     17a:	06 c0       	rjmp	.+12     	; 0x188 <__do_global_ctors+0x16>
     17c:	21 97       	sbiw	r28, 0x01	; 1
     17e:	01 09       	sbc	r16, r1
     180:	80 2f       	mov	r24, r16
     182:	fe 01       	movw	r30, r28
     184:	0e 94 92 16 	call	0x2d24	; 0x2d24 <__tablejump2__>
     188:	ca 39       	cpi	r28, 0x9A	; 154
     18a:	d1 07       	cpc	r29, r17
     18c:	80 e0       	ldi	r24, 0x00	; 0
     18e:	08 07       	cpc	r16, r24
     190:	a9 f7       	brne	.-22     	; 0x17c <__do_global_ctors+0xa>
     192:	0e 94 3f 12 	call	0x247e	; 0x247e <main>
     196:	0c 94 cd 17 	jmp	0x2f9a	; 0x2f9a <_exit>

0000019a <__bad_interrupt>:
     19a:	32 cf       	rjmp	.-412    	; 0x0 <__vectors>

0000019c <_Z16normal_fade_taskPv>:
     19c:	cf 93       	push	r28
     19e:	df 93       	push	r29
     1a0:	ec 01       	movw	r28, r24
     1a2:	ae e2       	ldi	r26, 0x2E	; 46
     1a4:	b2 e0       	ldi	r27, 0x02	; 2
     1a6:	8f ef       	ldi	r24, 0xFF	; 255
     1a8:	90 e0       	ldi	r25, 0x00	; 0
     1aa:	19 96       	adiw	r26, 0x09	; 9
     1ac:	9c 93       	st	X, r25
     1ae:	8e 93       	st	-X, r24
     1b0:	18 97       	sbiw	r26, 0x08	; 8
     1b2:	e8 81       	ld	r30, Y
     1b4:	f0 e0       	ldi	r31, 0x00	; 0
     1b6:	ee 0f       	add	r30, r30
     1b8:	ff 1f       	adc	r31, r31
     1ba:	e2 5e       	subi	r30, 0xE2	; 226
     1bc:	fd 4f       	sbci	r31, 0xFD	; 253
     1be:	01 90       	ld	r0, Z+
     1c0:	f0 81       	ld	r31, Z
     1c2:	e0 2d       	mov	r30, r0
     1c4:	80 81       	ld	r24, Z
     1c6:	90 e0       	ldi	r25, 0x00	; 0
     1c8:	13 96       	adiw	r26, 0x03	; 3
     1ca:	9c 93       	st	X, r25
     1cc:	8e 93       	st	-X, r24
     1ce:	12 97       	sbiw	r26, 0x02	; 2
     1d0:	e8 81       	ld	r30, Y
     1d2:	f0 e0       	ldi	r31, 0x00	; 0
     1d4:	ee 0f       	add	r30, r30
     1d6:	ff 1f       	adc	r31, r31
     1d8:	e2 5e       	subi	r30, 0xE2	; 226
     1da:	fd 4f       	sbci	r31, 0xFD	; 253
     1dc:	01 90       	ld	r0, Z+
     1de:	f0 81       	ld	r31, Z
     1e0:	e0 2d       	mov	r30, r0
     1e2:	81 81       	ldd	r24, Z+1	; 0x01
     1e4:	90 e0       	ldi	r25, 0x00	; 0
     1e6:	15 96       	adiw	r26, 0x05	; 5
     1e8:	9c 93       	st	X, r25
     1ea:	8e 93       	st	-X, r24
     1ec:	14 97       	sbiw	r26, 0x04	; 4
     1ee:	e8 81       	ld	r30, Y
     1f0:	f0 e0       	ldi	r31, 0x00	; 0
     1f2:	ee 0f       	add	r30, r30
     1f4:	ff 1f       	adc	r31, r31
     1f6:	e2 5e       	subi	r30, 0xE2	; 226
     1f8:	fd 4f       	sbci	r31, 0xFD	; 253
     1fa:	01 90       	ld	r0, Z+
     1fc:	f0 81       	ld	r31, Z
     1fe:	e0 2d       	mov	r30, r0
     200:	82 81       	ldd	r24, Z+2	; 0x02
     202:	90 e0       	ldi	r25, 0x00	; 0
     204:	17 96       	adiw	r26, 0x07	; 7
     206:	9c 93       	st	X, r25
     208:	8e 93       	st	-X, r24
     20a:	16 97       	sbiw	r26, 0x06	; 6
     20c:	65 e0       	ldi	r22, 0x05	; 5
     20e:	8f ef       	ldi	r24, 0xFF	; 255
     210:	24 d3       	rcall	.+1608   	; 0x85a <_Z18svetlost_mod_functch>
     212:	10 92 b2 02 	sts	0x02B2, r1	; 0x8002b2 <normal_fade_handle+0x1>
     216:	10 92 b1 02 	sts	0x02B1, r1	; 0x8002b1 <normal_fade_handle>
     21a:	80 e0       	ldi	r24, 0x00	; 0
     21c:	90 e0       	ldi	r25, 0x00	; 0
     21e:	df 91       	pop	r29
     220:	cf 91       	pop	r28
     222:	0c 94 e1 0b 	jmp	0x17c2	; 0x17c2 <vTaskDelete>

00000226 <_Z17breathe_fade_taskPv>:
     226:	dc 01       	movw	r26, r24
     228:	80 91 af 02 	lds	r24, 0x02AF	; 0x8002af <color_fade_handle>
     22c:	90 91 b0 02 	lds	r25, 0x02B0	; 0x8002b0 <color_fade_handle+0x1>
     230:	89 2b       	or	r24, r25
     232:	69 f5       	brne	.+90     	; 0x28e <_Z17breathe_fade_taskPv+0x68>
     234:	ec 91       	ld	r30, X
     236:	f0 e0       	ldi	r31, 0x00	; 0
     238:	ee 0f       	add	r30, r30
     23a:	ff 1f       	adc	r31, r31
     23c:	e2 5e       	subi	r30, 0xE2	; 226
     23e:	fd 4f       	sbci	r31, 0xFD	; 253
     240:	01 90       	ld	r0, Z+
     242:	f0 81       	ld	r31, Z
     244:	e0 2d       	mov	r30, r0
     246:	80 81       	ld	r24, Z
     248:	90 e0       	ldi	r25, 0x00	; 0
     24a:	90 93 31 02 	sts	0x0231, r25	; 0x800231 <audio_system+0x3>
     24e:	80 93 30 02 	sts	0x0230, r24	; 0x800230 <audio_system+0x2>
     252:	ec 91       	ld	r30, X
     254:	f0 e0       	ldi	r31, 0x00	; 0
     256:	ee 0f       	add	r30, r30
     258:	ff 1f       	adc	r31, r31
     25a:	e2 5e       	subi	r30, 0xE2	; 226
     25c:	fd 4f       	sbci	r31, 0xFD	; 253
     25e:	01 90       	ld	r0, Z+
     260:	f0 81       	ld	r31, Z
     262:	e0 2d       	mov	r30, r0
     264:	81 81       	ldd	r24, Z+1	; 0x01
     266:	90 e0       	ldi	r25, 0x00	; 0
     268:	90 93 33 02 	sts	0x0233, r25	; 0x800233 <audio_system+0x5>
     26c:	80 93 32 02 	sts	0x0232, r24	; 0x800232 <audio_system+0x4>
     270:	ec 91       	ld	r30, X
     272:	f0 e0       	ldi	r31, 0x00	; 0
     274:	ee 0f       	add	r30, r30
     276:	ff 1f       	adc	r31, r31
     278:	e2 5e       	subi	r30, 0xE2	; 226
     27a:	fd 4f       	sbci	r31, 0xFD	; 253
     27c:	01 90       	ld	r0, Z+
     27e:	f0 81       	ld	r31, Z
     280:	e0 2d       	mov	r30, r0
     282:	82 81       	ldd	r24, Z+2	; 0x02
     284:	90 e0       	ldi	r25, 0x00	; 0
     286:	90 93 35 02 	sts	0x0235, r25	; 0x800235 <audio_system+0x7>
     28a:	80 93 34 02 	sts	0x0234, r24	; 0x800234 <audio_system+0x6>
     28e:	63 e0       	ldi	r22, 0x03	; 3
     290:	81 e0       	ldi	r24, 0x01	; 1
     292:	e3 d2       	rcall	.+1478   	; 0x85a <_Z18svetlost_mod_functch>
     294:	63 e0       	ldi	r22, 0x03	; 3
     296:	8f ef       	ldi	r24, 0xFF	; 255
     298:	e0 d2       	rcall	.+1472   	; 0x85a <_Z18svetlost_mod_functch>
     29a:	10 92 ae 02 	sts	0x02AE, r1	; 0x8002ae <breathe_fade_handle+0x1>
     29e:	10 92 ad 02 	sts	0x02AD, r1	; 0x8002ad <breathe_fade_handle>
     2a2:	80 e0       	ldi	r24, 0x00	; 0
     2a4:	90 e0       	ldi	r25, 0x00	; 0
     2a6:	0c 94 e1 0b 	jmp	0x17c2	; 0x17c2 <vTaskDelete>

000002aa <_Z15color_fade_taskPv>:
     2aa:	20 91 ad 02 	lds	r18, 0x02AD	; 0x8002ad <breathe_fade_handle>
     2ae:	30 91 ae 02 	lds	r19, 0x02AE	; 0x8002ae <breathe_fade_handle+0x1>
     2b2:	23 2b       	or	r18, r19
     2b4:	31 f4       	brne	.+12     	; 0x2c2 <_Z15color_fade_taskPv+0x18>
     2b6:	2f ef       	ldi	r18, 0xFF	; 255
     2b8:	30 e0       	ldi	r19, 0x00	; 0
     2ba:	30 93 37 02 	sts	0x0237, r19	; 0x800237 <audio_system+0x9>
     2be:	20 93 36 02 	sts	0x0236, r18	; 0x800236 <audio_system+0x8>
     2c2:	2a d2       	rcall	.+1108   	; 0x718 <_Z16color_fade_functPh>
     2c4:	10 92 b0 02 	sts	0x02B0, r1	; 0x8002b0 <color_fade_handle+0x1>
     2c8:	10 92 af 02 	sts	0x02AF, r1	; 0x8002af <color_fade_handle>
     2cc:	80 e0       	ldi	r24, 0x00	; 0
     2ce:	90 e0       	ldi	r25, 0x00	; 0
     2d0:	0c 94 e1 0b 	jmp	0x17c2	; 0x17c2 <vTaskDelete>

000002d4 <_Z12audio_visualPv>:
     2d4:	cf 93       	push	r28
     2d6:	df 93       	push	r29
     2d8:	cd b7       	in	r28, 0x3d	; 61
     2da:	de b7       	in	r29, 0x3e	; 62
     2dc:	2a 97       	sbiw	r28, 0x0a	; 10
     2de:	0f b6       	in	r0, 0x3f	; 63
     2e0:	f8 94       	cli
     2e2:	de bf       	out	0x3e, r29	; 62
     2e4:	0f be       	out	0x3f, r0	; 63
     2e6:	cd bf       	out	0x3d, r28	; 61
     2e8:	3b ea       	ldi	r19, 0xAB	; 171
     2ea:	e3 2e       	mov	r14, r19
     2ec:	32 e0       	ldi	r19, 0x02	; 2
     2ee:	f3 2e       	mov	r15, r19
     2f0:	02 e0       	ldi	r16, 0x02	; 2
     2f2:	20 e0       	ldi	r18, 0x00	; 0
     2f4:	30 e0       	ldi	r19, 0x00	; 0
     2f6:	40 e8       	ldi	r20, 0x80	; 128
     2f8:	50 e0       	ldi	r21, 0x00	; 0
     2fa:	6c e4       	ldi	r22, 0x4C	; 76
     2fc:	72 e0       	ldi	r23, 0x02	; 2
     2fe:	8d e4       	ldi	r24, 0x4D	; 77
     300:	92 e0       	ldi	r25, 0x02	; 2
     302:	0e 94 ed 0a 	call	0x15da	; 0x15da <xTaskCreate>
     306:	c1 2c       	mov	r12, r1
     308:	48 e0       	ldi	r20, 0x08	; 8
     30a:	d4 2e       	mov	r13, r20
     30c:	10 e0       	ldi	r17, 0x00	; 0
     30e:	80 91 38 02 	lds	r24, 0x0238	; 0x800238 <audio_system+0xa>
     312:	90 91 39 02 	lds	r25, 0x0239	; 0x800239 <audio_system+0xb>
     316:	00 97       	sbiw	r24, 0x00	; 0
     318:	e1 f0       	breq	.+56     	; 0x352 <_Z12audio_visualPv+0x7e>
     31a:	01 97       	sbiw	r24, 0x01	; 1
     31c:	41 f5       	brne	.+80     	; 0x36e <_Z12audio_visualPv+0x9a>
     31e:	80 e0       	ldi	r24, 0x00	; 0
     320:	0e 94 fb 10 	call	0x21f6	; 0x21f6 <_Z10readANALOGh>
     324:	11 e0       	ldi	r17, 0x01	; 1
     326:	c8 16       	cp	r12, r24
     328:	d9 06       	cpc	r13, r25
     32a:	08 f0       	brcs	.+2      	; 0x32e <_Z12audio_visualPv+0x5a>
     32c:	10 e0       	ldi	r17, 0x00	; 0
     32e:	ce 01       	movw	r24, r28
     330:	01 96       	adiw	r24, 0x01	; 1
     332:	0e 94 28 10 	call	0x2050	; 0x2050 <_ZN8castimer8vrednostEv>
     336:	69 3b       	cpi	r22, 0xB9	; 185
     338:	7b 40       	sbci	r23, 0x0B	; 11
     33a:	81 05       	cpc	r24, r1
     33c:	91 05       	cpc	r25, r1
     33e:	b8 f0       	brcs	.+46     	; 0x36e <_Z12audio_visualPv+0x9a>
     340:	ce 01       	movw	r24, r28
     342:	01 96       	adiw	r24, 0x01	; 1
     344:	0e 94 4d 10 	call	0x209a	; 0x209a <_ZN8castimer9ponastaviEv>
     348:	83 e0       	ldi	r24, 0x03	; 3
     34a:	0e 94 fb 10 	call	0x21f6	; 0x21f6 <_Z10readANALOGh>
     34e:	6c 01       	movw	r12, r24
     350:	0e c0       	rjmp	.+28     	; 0x36e <_Z12audio_visualPv+0x9a>
     352:	80 e0       	ldi	r24, 0x00	; 0
     354:	0e 94 fb 10 	call	0x21f6	; 0x21f6 <_Z10readANALOGh>
     358:	20 91 3a 02 	lds	r18, 0x023A	; 0x80023a <audio_system+0xc>
     35c:	30 91 3b 02 	lds	r19, 0x023B	; 0x80023b <audio_system+0xd>
     360:	24 5c       	subi	r18, 0xC4	; 196
     362:	3f 4f       	sbci	r19, 0xFF	; 255
     364:	11 e0       	ldi	r17, 0x01	; 1
     366:	82 17       	cp	r24, r18
     368:	93 07       	cpc	r25, r19
     36a:	08 f4       	brcc	.+2      	; 0x36e <_Z12audio_visualPv+0x9a>
     36c:	10 e0       	ldi	r17, 0x00	; 0
     36e:	ce 01       	movw	r24, r28
     370:	06 96       	adiw	r24, 0x06	; 6
     372:	0e 94 28 10 	call	0x2050	; 0x2050 <_ZN8castimer8vrednostEv>
     376:	65 36       	cpi	r22, 0x65	; 101
     378:	71 05       	cpc	r23, r1
     37a:	81 05       	cpc	r24, r1
     37c:	91 05       	cpc	r25, r1
     37e:	98 f1       	brcs	.+102    	; 0x3e6 <_Z12audio_visualPv+0x112>
     380:	11 23       	and	r17, r17
     382:	89 f1       	breq	.+98     	; 0x3e6 <_Z12audio_visualPv+0x112>
     384:	ce 01       	movw	r24, r28
     386:	06 96       	adiw	r24, 0x06	; 6
     388:	0e 94 4d 10 	call	0x209a	; 0x209a <_ZN8castimer9ponastaviEv>
     38c:	80 91 aa 02 	lds	r24, 0x02AA	; 0x8002aa <__data_end>
     390:	8f 5f       	subi	r24, 0xFF	; 255
     392:	80 93 aa 02 	sts	0x02AA, r24	; 0x8002aa <__data_end>
     396:	80 91 2e 02 	lds	r24, 0x022E	; 0x80022e <audio_system>
     39a:	90 91 2f 02 	lds	r25, 0x022F	; 0x80022f <audio_system+0x1>
     39e:	81 30       	cpi	r24, 0x01	; 1
     3a0:	91 05       	cpc	r25, r1
     3a2:	31 f1       	breq	.+76     	; 0x3f0 <_Z12audio_visualPv+0x11c>
     3a4:	08 f0       	brcs	.+2      	; 0x3a8 <_Z12audio_visualPv+0xd4>
     3a6:	42 c0       	rjmp	.+132    	; 0x42c <__LOCK_REGION_LENGTH__+0x2c>
     3a8:	80 91 b1 02 	lds	r24, 0x02B1	; 0x8002b1 <normal_fade_handle>
     3ac:	90 91 b2 02 	lds	r25, 0x02B2	; 0x8002b2 <normal_fade_handle+0x1>
     3b0:	00 97       	sbiw	r24, 0x00	; 0
     3b2:	51 f0       	breq	.+20     	; 0x3c8 <_Z12audio_visualPv+0xf4>
     3b4:	0e 94 e1 0b 	call	0x17c2	; 0x17c2 <vTaskDelete>
     3b8:	10 92 b2 02 	sts	0x02B2, r1	; 0x8002b2 <normal_fade_handle+0x1>
     3bc:	10 92 b1 02 	sts	0x02B1, r1	; 0x8002b1 <normal_fade_handle>
     3c0:	82 e0       	ldi	r24, 0x02	; 2
     3c2:	90 e0       	ldi	r25, 0x00	; 0
     3c4:	0e 94 f4 0d 	call	0x1be8	; 0x1be8 <vTaskDelay>
     3c8:	21 eb       	ldi	r18, 0xB1	; 177
     3ca:	e2 2e       	mov	r14, r18
     3cc:	22 e0       	ldi	r18, 0x02	; 2
     3ce:	f2 2e       	mov	r15, r18
     3d0:	04 e0       	ldi	r16, 0x04	; 4
     3d2:	20 e0       	ldi	r18, 0x00	; 0
     3d4:	30 e0       	ldi	r19, 0x00	; 0
     3d6:	40 e8       	ldi	r20, 0x80	; 128
     3d8:	50 e0       	ldi	r21, 0x00	; 0
     3da:	60 e6       	ldi	r22, 0x60	; 96
     3dc:	72 e0       	ldi	r23, 0x02	; 2
     3de:	8e ec       	ldi	r24, 0xCE	; 206
     3e0:	90 e0       	ldi	r25, 0x00	; 0
     3e2:	0e 94 ed 0a 	call	0x15da	; 0x15da <xTaskCreate>
     3e6:	8a e0       	ldi	r24, 0x0A	; 10
     3e8:	90 e0       	ldi	r25, 0x00	; 0
     3ea:	0e 94 f4 0d 	call	0x1be8	; 0x1be8 <vTaskDelay>
     3ee:	8f cf       	rjmp	.-226    	; 0x30e <_Z12audio_visualPv+0x3a>
     3f0:	80 91 af 02 	lds	r24, 0x02AF	; 0x8002af <color_fade_handle>
     3f4:	90 91 b0 02 	lds	r25, 0x02B0	; 0x8002b0 <color_fade_handle+0x1>
     3f8:	00 97       	sbiw	r24, 0x00	; 0
     3fa:	51 f0       	breq	.+20     	; 0x410 <__LOCK_REGION_LENGTH__+0x10>
     3fc:	0e 94 e1 0b 	call	0x17c2	; 0x17c2 <vTaskDelete>
     400:	10 92 b0 02 	sts	0x02B0, r1	; 0x8002b0 <color_fade_handle+0x1>
     404:	10 92 af 02 	sts	0x02AF, r1	; 0x8002af <color_fade_handle>
     408:	82 e0       	ldi	r24, 0x02	; 2
     40a:	90 e0       	ldi	r25, 0x00	; 0
     40c:	0e 94 f4 0d 	call	0x1be8	; 0x1be8 <vTaskDelay>
     410:	9f ea       	ldi	r25, 0xAF	; 175
     412:	e9 2e       	mov	r14, r25
     414:	92 e0       	ldi	r25, 0x02	; 2
     416:	f9 2e       	mov	r15, r25
     418:	04 e0       	ldi	r16, 0x04	; 4
     41a:	20 e0       	ldi	r18, 0x00	; 0
     41c:	30 e0       	ldi	r19, 0x00	; 0
     41e:	40 e8       	ldi	r20, 0x80	; 128
     420:	50 e0       	ldi	r21, 0x00	; 0
     422:	6b e6       	ldi	r22, 0x6B	; 107
     424:	72 e0       	ldi	r23, 0x02	; 2
     426:	85 e5       	ldi	r24, 0x55	; 85
     428:	91 e0       	ldi	r25, 0x01	; 1
     42a:	db cf       	rjmp	.-74     	; 0x3e2 <_Z12audio_visualPv+0x10e>
     42c:	82 30       	cpi	r24, 0x02	; 2
     42e:	91 05       	cpc	r25, r1
     430:	f1 f4       	brne	.+60     	; 0x46e <__LOCK_REGION_LENGTH__+0x6e>
     432:	80 91 b1 02 	lds	r24, 0x02B1	; 0x8002b1 <normal_fade_handle>
     436:	90 91 b2 02 	lds	r25, 0x02B2	; 0x8002b2 <normal_fade_handle+0x1>
     43a:	00 97       	sbiw	r24, 0x00	; 0
     43c:	51 f0       	breq	.+20     	; 0x452 <__LOCK_REGION_LENGTH__+0x52>
     43e:	0e 94 e1 0b 	call	0x17c2	; 0x17c2 <vTaskDelete>
     442:	10 92 b2 02 	sts	0x02B2, r1	; 0x8002b2 <normal_fade_handle+0x1>
     446:	10 92 b1 02 	sts	0x02B1, r1	; 0x8002b1 <normal_fade_handle>
     44a:	82 e0       	ldi	r24, 0x02	; 2
     44c:	90 e0       	ldi	r25, 0x00	; 0
     44e:	0e 94 f4 0d 	call	0x1be8	; 0x1be8 <vTaskDelay>
     452:	8d ea       	ldi	r24, 0xAD	; 173
     454:	e8 2e       	mov	r14, r24
     456:	82 e0       	ldi	r24, 0x02	; 2
     458:	f8 2e       	mov	r15, r24
     45a:	04 e0       	ldi	r16, 0x04	; 4
     45c:	20 e0       	ldi	r18, 0x00	; 0
     45e:	30 e0       	ldi	r19, 0x00	; 0
     460:	40 e8       	ldi	r20, 0x80	; 128
     462:	50 e0       	ldi	r21, 0x00	; 0
     464:	65 e7       	ldi	r22, 0x75	; 117
     466:	72 e0       	ldi	r23, 0x02	; 2
     468:	83 e1       	ldi	r24, 0x13	; 19
     46a:	91 e0       	ldi	r25, 0x01	; 1
     46c:	ba cf       	rjmp	.-140    	; 0x3e2 <_Z12audio_visualPv+0x10e>
     46e:	04 97       	sbiw	r24, 0x04	; 4
     470:	09 f0       	breq	.+2      	; 0x474 <__LOCK_REGION_LENGTH__+0x74>
     472:	b9 cf       	rjmp	.-142    	; 0x3e6 <_Z12audio_visualPv+0x112>
     474:	80 91 4c 03 	lds	r24, 0x034C	; 0x80034c <audio_system_control>
     478:	90 91 4d 03 	lds	r25, 0x034D	; 0x80034d <audio_system_control+0x1>
     47c:	0e 94 2f 0c 	call	0x185e	; 0x185e <eTaskGetState>
     480:	83 30       	cpi	r24, 0x03	; 3
     482:	09 f4       	brne	.+2      	; 0x486 <__LOCK_REGION_LENGTH__+0x86>
     484:	b0 cf       	rjmp	.-160    	; 0x3e6 <_Z12audio_visualPv+0x112>
     486:	80 91 4c 03 	lds	r24, 0x034C	; 0x80034c <audio_system_control>
     48a:	90 91 4d 03 	lds	r25, 0x034D	; 0x80034d <audio_system_control+0x1>
     48e:	00 97       	sbiw	r24, 0x00	; 0
     490:	09 f4       	brne	.+2      	; 0x494 <__LOCK_REGION_LENGTH__+0x94>
     492:	a9 cf       	rjmp	.-174    	; 0x3e6 <_Z12audio_visualPv+0x112>
     494:	0e 94 48 0e 	call	0x1c90	; 0x1c90 <vTaskSuspend>
     498:	a6 cf       	rjmp	.-180    	; 0x3e6 <_Z12audio_visualPv+0x112>

0000049a <_Z12avg_vol_taskPv>:
     49a:	cf 93       	push	r28
     49c:	df 93       	push	r29
     49e:	00 d0       	rcall	.+0      	; 0x4a0 <_Z12avg_vol_taskPv+0x6>
     4a0:	1f 92       	push	r1
     4a2:	1f 92       	push	r1
     4a4:	cd b7       	in	r28, 0x3d	; 61
     4a6:	de b7       	in	r29, 0x3e	; 62
     4a8:	e1 2c       	mov	r14, r1
     4aa:	f1 2c       	mov	r15, r1
     4ac:	00 e0       	ldi	r16, 0x00	; 0
     4ae:	10 e0       	ldi	r17, 0x00	; 0
     4b0:	81 2c       	mov	r8, r1
     4b2:	91 2c       	mov	r9, r1
     4b4:	54 01       	movw	r10, r8
     4b6:	80 e0       	ldi	r24, 0x00	; 0
     4b8:	0e 94 fb 10 	call	0x21f6	; 0x21f6 <_Z10readANALOGh>
     4bc:	e8 16       	cp	r14, r24
     4be:	f9 06       	cpc	r15, r25
     4c0:	08 f4       	brcc	.+2      	; 0x4c4 <_Z12avg_vol_taskPv+0x2a>
     4c2:	7c 01       	movw	r14, r24
     4c4:	ce 01       	movw	r24, r28
     4c6:	01 96       	adiw	r24, 0x01	; 1
     4c8:	0e 94 28 10 	call	0x2050	; 0x2050 <_ZN8castimer8vrednostEv>
     4cc:	6f 30       	cpi	r22, 0x0F	; 15
     4ce:	71 05       	cpc	r23, r1
     4d0:	81 05       	cpc	r24, r1
     4d2:	91 05       	cpc	r25, r1
     4d4:	60 f0       	brcs	.+24     	; 0x4ee <_Z12avg_vol_taskPv+0x54>
     4d6:	8e 0c       	add	r8, r14
     4d8:	9f 1c       	adc	r9, r15
     4da:	a1 1c       	adc	r10, r1
     4dc:	b1 1c       	adc	r11, r1
     4de:	0f 5f       	subi	r16, 0xFF	; 255
     4e0:	1f 4f       	sbci	r17, 0xFF	; 255
     4e2:	ce 01       	movw	r24, r28
     4e4:	01 96       	adiw	r24, 0x01	; 1
     4e6:	0e 94 4d 10 	call	0x209a	; 0x209a <_ZN8castimer9ponastaviEv>
     4ea:	e1 2c       	mov	r14, r1
     4ec:	f1 2c       	mov	r15, r1
     4ee:	02 33       	cpi	r16, 0x32	; 50
     4f0:	11 05       	cpc	r17, r1
     4f2:	b8 f0       	brcs	.+46     	; 0x522 <_Z12avg_vol_taskPv+0x88>
     4f4:	0f b6       	in	r0, 0x3f	; 63
     4f6:	f8 94       	cli
     4f8:	0f 92       	push	r0
     4fa:	98 01       	movw	r18, r16
     4fc:	40 e0       	ldi	r20, 0x00	; 0
     4fe:	50 e0       	ldi	r21, 0x00	; 0
     500:	c5 01       	movw	r24, r10
     502:	b4 01       	movw	r22, r8
     504:	0e 94 70 16 	call	0x2ce0	; 0x2ce0 <__udivmodsi4>
     508:	30 93 3b 02 	sts	0x023B, r19	; 0x80023b <audio_system+0xd>
     50c:	20 93 3a 02 	sts	0x023A, r18	; 0x80023a <audio_system+0xc>
     510:	0f 90       	pop	r0
     512:	0f be       	out	0x3f, r0	; 63
     514:	e1 2c       	mov	r14, r1
     516:	f1 2c       	mov	r15, r1
     518:	00 e0       	ldi	r16, 0x00	; 0
     51a:	10 e0       	ldi	r17, 0x00	; 0
     51c:	81 2c       	mov	r8, r1
     51e:	91 2c       	mov	r9, r1
     520:	54 01       	movw	r10, r8
     522:	84 e0       	ldi	r24, 0x04	; 4
     524:	90 e0       	ldi	r25, 0x00	; 0
     526:	0e 94 f4 0d 	call	0x1be8	; 0x1be8 <vTaskDelay>
     52a:	c5 cf       	rjmp	.-118    	; 0x4b6 <_Z12avg_vol_taskPv+0x1c>

0000052c <_Z19deleteStripSubTasksv>:
     52c:	80 91 b1 02 	lds	r24, 0x02B1	; 0x8002b1 <normal_fade_handle>
     530:	90 91 b2 02 	lds	r25, 0x02B2	; 0x8002b2 <normal_fade_handle+0x1>
     534:	00 97       	sbiw	r24, 0x00	; 0
     536:	51 f0       	breq	.+20     	; 0x54c <_Z19deleteStripSubTasksv+0x20>
     538:	0e 94 e1 0b 	call	0x17c2	; 0x17c2 <vTaskDelete>
     53c:	10 92 b2 02 	sts	0x02B2, r1	; 0x8002b2 <normal_fade_handle+0x1>
     540:	10 92 b1 02 	sts	0x02B1, r1	; 0x8002b1 <normal_fade_handle>
     544:	82 e0       	ldi	r24, 0x02	; 2
     546:	90 e0       	ldi	r25, 0x00	; 0
     548:	0e 94 f4 0d 	call	0x1be8	; 0x1be8 <vTaskDelay>
     54c:	80 91 af 02 	lds	r24, 0x02AF	; 0x8002af <color_fade_handle>
     550:	90 91 b0 02 	lds	r25, 0x02B0	; 0x8002b0 <color_fade_handle+0x1>
     554:	00 97       	sbiw	r24, 0x00	; 0
     556:	51 f0       	breq	.+20     	; 0x56c <_Z19deleteStripSubTasksv+0x40>
     558:	0e 94 e1 0b 	call	0x17c2	; 0x17c2 <vTaskDelete>
     55c:	10 92 b0 02 	sts	0x02B0, r1	; 0x8002b0 <color_fade_handle+0x1>
     560:	10 92 af 02 	sts	0x02AF, r1	; 0x8002af <color_fade_handle>
     564:	82 e0       	ldi	r24, 0x02	; 2
     566:	90 e0       	ldi	r25, 0x00	; 0
     568:	0e 94 f4 0d 	call	0x1be8	; 0x1be8 <vTaskDelay>
     56c:	80 91 ad 02 	lds	r24, 0x02AD	; 0x8002ad <breathe_fade_handle>
     570:	90 91 ae 02 	lds	r25, 0x02AE	; 0x8002ae <breathe_fade_handle+0x1>
     574:	00 97       	sbiw	r24, 0x00	; 0
     576:	51 f0       	breq	.+20     	; 0x58c <_Z19deleteStripSubTasksv+0x60>
     578:	0e 94 e1 0b 	call	0x17c2	; 0x17c2 <vTaskDelete>
     57c:	10 92 ae 02 	sts	0x02AE, r1	; 0x8002ae <breathe_fade_handle+0x1>
     580:	10 92 ad 02 	sts	0x02AD, r1	; 0x8002ad <breathe_fade_handle>
     584:	82 e0       	ldi	r24, 0x02	; 2
     586:	90 e0       	ldi	r25, 0x00	; 0
     588:	0c 94 f4 0d 	jmp	0x1be8	; 0x1be8 <vTaskDelay>
     58c:	08 95       	ret

0000058e <_Z12update_stripv>:
     58e:	cf 92       	push	r12
     590:	df 92       	push	r13
     592:	ef 92       	push	r14
     594:	ff 92       	push	r15
     596:	cf 93       	push	r28
     598:	df 93       	push	r29
     59a:	ce e2       	ldi	r28, 0x2E	; 46
     59c:	d2 e0       	ldi	r29, 0x02	; 2
     59e:	6a 81       	ldd	r22, Y+2	; 0x02
     5a0:	7b 81       	ldd	r23, Y+3	; 0x03
     5a2:	07 2e       	mov	r0, r23
     5a4:	00 0c       	add	r0, r0
     5a6:	88 0b       	sbc	r24, r24
     5a8:	99 0b       	sbc	r25, r25
     5aa:	0e 94 45 15 	call	0x2a8a	; 0x2a8a <__floatsisf>
     5ae:	6b 01       	movw	r12, r22
     5b0:	7c 01       	movw	r14, r24
     5b2:	68 85       	ldd	r22, Y+8	; 0x08
     5b4:	79 85       	ldd	r23, Y+9	; 0x09
     5b6:	07 2e       	mov	r0, r23
     5b8:	00 0c       	add	r0, r0
     5ba:	88 0b       	sbc	r24, r24
     5bc:	99 0b       	sbc	r25, r25
     5be:	0e 94 45 15 	call	0x2a8a	; 0x2a8a <__floatsisf>
     5c2:	9b 01       	movw	r18, r22
     5c4:	ac 01       	movw	r20, r24
     5c6:	c7 01       	movw	r24, r14
     5c8:	b6 01       	movw	r22, r12
     5ca:	0e 94 f9 15 	call	0x2bf2	; 0x2bf2 <__mulsf3>
     5ce:	20 e0       	ldi	r18, 0x00	; 0
     5d0:	30 e0       	ldi	r19, 0x00	; 0
     5d2:	4f e7       	ldi	r20, 0x7F	; 127
     5d4:	53 e4       	ldi	r21, 0x43	; 67
     5d6:	0e 94 af 14 	call	0x295e	; 0x295e <__divsf3>
     5da:	0e 94 17 15 	call	0x2a2e	; 0x2a2e <__fixunssfsi>
     5de:	46 2f       	mov	r20, r22
     5e0:	62 e4       	ldi	r22, 0x42	; 66
     5e2:	84 e0       	ldi	r24, 0x04	; 4
     5e4:	0e 94 18 11 	call	0x2230	; 0x2230 <_Z8writePWMhch>
     5e8:	6c 81       	ldd	r22, Y+4	; 0x04
     5ea:	7d 81       	ldd	r23, Y+5	; 0x05
     5ec:	07 2e       	mov	r0, r23
     5ee:	00 0c       	add	r0, r0
     5f0:	88 0b       	sbc	r24, r24
     5f2:	99 0b       	sbc	r25, r25
     5f4:	0e 94 45 15 	call	0x2a8a	; 0x2a8a <__floatsisf>
     5f8:	6b 01       	movw	r12, r22
     5fa:	7c 01       	movw	r14, r24
     5fc:	68 85       	ldd	r22, Y+8	; 0x08
     5fe:	79 85       	ldd	r23, Y+9	; 0x09
     600:	07 2e       	mov	r0, r23
     602:	00 0c       	add	r0, r0
     604:	88 0b       	sbc	r24, r24
     606:	99 0b       	sbc	r25, r25
     608:	0e 94 45 15 	call	0x2a8a	; 0x2a8a <__floatsisf>
     60c:	9b 01       	movw	r18, r22
     60e:	ac 01       	movw	r20, r24
     610:	c7 01       	movw	r24, r14
     612:	b6 01       	movw	r22, r12
     614:	0e 94 f9 15 	call	0x2bf2	; 0x2bf2 <__mulsf3>
     618:	20 e0       	ldi	r18, 0x00	; 0
     61a:	30 e0       	ldi	r19, 0x00	; 0
     61c:	4f e7       	ldi	r20, 0x7F	; 127
     61e:	53 e4       	ldi	r21, 0x43	; 67
     620:	0e 94 af 14 	call	0x295e	; 0x295e <__divsf3>
     624:	0e 94 17 15 	call	0x2a2e	; 0x2a2e <__fixunssfsi>
     628:	46 2f       	mov	r20, r22
     62a:	62 e4       	ldi	r22, 0x42	; 66
     62c:	85 e0       	ldi	r24, 0x05	; 5
     62e:	0e 94 18 11 	call	0x2230	; 0x2230 <_Z8writePWMhch>
     632:	6e 81       	ldd	r22, Y+6	; 0x06
     634:	7f 81       	ldd	r23, Y+7	; 0x07
     636:	07 2e       	mov	r0, r23
     638:	00 0c       	add	r0, r0
     63a:	88 0b       	sbc	r24, r24
     63c:	99 0b       	sbc	r25, r25
     63e:	0e 94 45 15 	call	0x2a8a	; 0x2a8a <__floatsisf>
     642:	6b 01       	movw	r12, r22
     644:	7c 01       	movw	r14, r24
     646:	68 85       	ldd	r22, Y+8	; 0x08
     648:	79 85       	ldd	r23, Y+9	; 0x09
     64a:	07 2e       	mov	r0, r23
     64c:	00 0c       	add	r0, r0
     64e:	88 0b       	sbc	r24, r24
     650:	99 0b       	sbc	r25, r25
     652:	0e 94 45 15 	call	0x2a8a	; 0x2a8a <__floatsisf>
     656:	9b 01       	movw	r18, r22
     658:	ac 01       	movw	r20, r24
     65a:	c7 01       	movw	r24, r14
     65c:	b6 01       	movw	r22, r12
     65e:	0e 94 f9 15 	call	0x2bf2	; 0x2bf2 <__mulsf3>
     662:	20 e0       	ldi	r18, 0x00	; 0
     664:	30 e0       	ldi	r19, 0x00	; 0
     666:	4f e7       	ldi	r20, 0x7F	; 127
     668:	53 e4       	ldi	r21, 0x43	; 67
     66a:	0e 94 af 14 	call	0x295e	; 0x295e <__divsf3>
     66e:	0e 94 17 15 	call	0x2a2e	; 0x2a2e <__fixunssfsi>
     672:	46 2f       	mov	r20, r22
     674:	62 e4       	ldi	r22, 0x42	; 66
     676:	86 e0       	ldi	r24, 0x06	; 6
     678:	df 91       	pop	r29
     67a:	cf 91       	pop	r28
     67c:	ff 90       	pop	r15
     67e:	ef 90       	pop	r14
     680:	df 90       	pop	r13
     682:	cf 90       	pop	r12
     684:	0c 94 18 11 	jmp	0x2230	; 0x2230 <_Z8writePWMhch>

00000688 <_Z11flash_stripv>:
     688:	cf 93       	push	r28
     68a:	e0 91 00 00 	lds	r30, 0x0000	; 0x800000 <__TEXT_REGION_LENGTH__+0x7c0000>
     68e:	f0 e0       	ldi	r31, 0x00	; 0
     690:	ee 0f       	add	r30, r30
     692:	ff 1f       	adc	r31, r31
     694:	e2 5e       	subi	r30, 0xE2	; 226
     696:	fd 4f       	sbci	r31, 0xFD	; 253
     698:	01 90       	ld	r0, Z+
     69a:	f0 81       	ld	r31, Z
     69c:	e0 2d       	mov	r30, r0
     69e:	80 81       	ld	r24, Z
     6a0:	90 e0       	ldi	r25, 0x00	; 0
     6a2:	90 93 31 02 	sts	0x0231, r25	; 0x800231 <audio_system+0x3>
     6a6:	80 93 30 02 	sts	0x0230, r24	; 0x800230 <audio_system+0x2>
     6aa:	81 81       	ldd	r24, Z+1	; 0x01
     6ac:	90 e0       	ldi	r25, 0x00	; 0
     6ae:	90 93 33 02 	sts	0x0233, r25	; 0x800233 <audio_system+0x5>
     6b2:	80 93 32 02 	sts	0x0232, r24	; 0x800232 <audio_system+0x4>
     6b6:	82 81       	ldd	r24, Z+2	; 0x02
     6b8:	90 e0       	ldi	r25, 0x00	; 0
     6ba:	90 93 35 02 	sts	0x0235, r25	; 0x800235 <audio_system+0x7>
     6be:	80 93 34 02 	sts	0x0234, r24	; 0x800234 <audio_system+0x6>
     6c2:	c5 e0       	ldi	r28, 0x05	; 5
     6c4:	40 e0       	ldi	r20, 0x00	; 0
     6c6:	62 e4       	ldi	r22, 0x42	; 66
     6c8:	84 e0       	ldi	r24, 0x04	; 4
     6ca:	0e 94 8f 10 	call	0x211e	; 0x211e <_Z11writeOUTPUThcb>
     6ce:	40 e0       	ldi	r20, 0x00	; 0
     6d0:	62 e4       	ldi	r22, 0x42	; 66
     6d2:	85 e0       	ldi	r24, 0x05	; 5
     6d4:	0e 94 8f 10 	call	0x211e	; 0x211e <_Z11writeOUTPUThcb>
     6d8:	40 e0       	ldi	r20, 0x00	; 0
     6da:	62 e4       	ldi	r22, 0x42	; 66
     6dc:	86 e0       	ldi	r24, 0x06	; 6
     6de:	0e 94 8f 10 	call	0x211e	; 0x211e <_Z11writeOUTPUThcb>
     6e2:	8a ef       	ldi	r24, 0xFA	; 250
     6e4:	90 e0       	ldi	r25, 0x00	; 0
     6e6:	0e 94 f4 0d 	call	0x1be8	; 0x1be8 <vTaskDelay>
     6ea:	41 e0       	ldi	r20, 0x01	; 1
     6ec:	62 e4       	ldi	r22, 0x42	; 66
     6ee:	84 e0       	ldi	r24, 0x04	; 4
     6f0:	0e 94 8f 10 	call	0x211e	; 0x211e <_Z11writeOUTPUThcb>
     6f4:	41 e0       	ldi	r20, 0x01	; 1
     6f6:	62 e4       	ldi	r22, 0x42	; 66
     6f8:	85 e0       	ldi	r24, 0x05	; 5
     6fa:	0e 94 8f 10 	call	0x211e	; 0x211e <_Z11writeOUTPUThcb>
     6fe:	41 e0       	ldi	r20, 0x01	; 1
     700:	62 e4       	ldi	r22, 0x42	; 66
     702:	86 e0       	ldi	r24, 0x06	; 6
     704:	0e 94 8f 10 	call	0x211e	; 0x211e <_Z11writeOUTPUThcb>
     708:	8a ef       	ldi	r24, 0xFA	; 250
     70a:	90 e0       	ldi	r25, 0x00	; 0
     70c:	0e 94 f4 0d 	call	0x1be8	; 0x1be8 <vTaskDelay>
     710:	c1 50       	subi	r28, 0x01	; 1
     712:	c1 f6       	brne	.-80     	; 0x6c4 <_Z11flash_stripv+0x3c>
     714:	cf 91       	pop	r28
     716:	08 95       	ret

00000718 <_Z16color_fade_functPh>:
     718:	cf 93       	push	r28
     71a:	df 93       	push	r29
     71c:	ec 01       	movw	r28, r24
     71e:	40 91 30 02 	lds	r20, 0x0230	; 0x800230 <audio_system+0x2>
     722:	50 91 31 02 	lds	r21, 0x0231	; 0x800231 <audio_system+0x3>
     726:	e8 81       	ld	r30, Y
     728:	f0 e0       	ldi	r31, 0x00	; 0
     72a:	ee 0f       	add	r30, r30
     72c:	ff 1f       	adc	r31, r31
     72e:	e2 5e       	subi	r30, 0xE2	; 226
     730:	fd 4f       	sbci	r31, 0xFD	; 253
     732:	01 90       	ld	r0, Z+
     734:	f0 81       	ld	r31, Z
     736:	e0 2d       	mov	r30, r0
     738:	60 81       	ld	r22, Z
     73a:	70 e0       	ldi	r23, 0x00	; 0
     73c:	a1 81       	ldd	r26, Z+1	; 0x01
     73e:	20 91 32 02 	lds	r18, 0x0232	; 0x800232 <audio_system+0x4>
     742:	30 91 33 02 	lds	r19, 0x0233	; 0x800233 <audio_system+0x5>
     746:	e2 81       	ldd	r30, Z+2	; 0x02
     748:	80 91 34 02 	lds	r24, 0x0234	; 0x800234 <audio_system+0x6>
     74c:	90 91 35 02 	lds	r25, 0x0235	; 0x800235 <audio_system+0x7>
     750:	46 17       	cp	r20, r22
     752:	57 07       	cpc	r21, r23
     754:	59 f4       	brne	.+22     	; 0x76c <_Z16color_fade_functPh+0x54>
     756:	6a 2f       	mov	r22, r26
     758:	70 e0       	ldi	r23, 0x00	; 0
     75a:	26 17       	cp	r18, r22
     75c:	37 07       	cpc	r19, r23
     75e:	49 f4       	brne	.+18     	; 0x772 <_Z16color_fade_functPh+0x5a>
     760:	6e 2f       	mov	r22, r30
     762:	70 e0       	ldi	r23, 0x00	; 0
     764:	86 17       	cp	r24, r22
     766:	97 07       	cpc	r25, r23
     768:	21 f4       	brne	.+8      	; 0x772 <_Z16color_fade_functPh+0x5a>
     76a:	74 c0       	rjmp	.+232    	; 0x854 <_Z16color_fade_functPh+0x13c>
     76c:	64 17       	cp	r22, r20
     76e:	75 07       	cpc	r23, r21
     770:	14 f0       	brlt	.+4      	; 0x776 <_Z16color_fade_functPh+0x5e>
     772:	61 e0       	ldi	r22, 0x01	; 1
     774:	01 c0       	rjmp	.+2      	; 0x778 <_Z16color_fade_functPh+0x60>
     776:	6f ef       	ldi	r22, 0xFF	; 255
     778:	b0 e0       	ldi	r27, 0x00	; 0
     77a:	a2 17       	cp	r26, r18
     77c:	b3 07       	cpc	r27, r19
     77e:	14 f4       	brge	.+4      	; 0x784 <_Z16color_fade_functPh+0x6c>
     780:	bf ef       	ldi	r27, 0xFF	; 255
     782:	01 c0       	rjmp	.+2      	; 0x786 <_Z16color_fade_functPh+0x6e>
     784:	b1 e0       	ldi	r27, 0x01	; 1
     786:	f0 e0       	ldi	r31, 0x00	; 0
     788:	e8 17       	cp	r30, r24
     78a:	f9 07       	cpc	r31, r25
     78c:	14 f4       	brge	.+4      	; 0x792 <_Z16color_fade_functPh+0x7a>
     78e:	af ef       	ldi	r26, 0xFF	; 255
     790:	01 c0       	rjmp	.+2      	; 0x794 <_Z16color_fade_functPh+0x7c>
     792:	a1 e0       	ldi	r26, 0x01	; 1
     794:	7a e0       	ldi	r23, 0x0A	; 10
     796:	67 9f       	mul	r22, r23
     798:	40 0d       	add	r20, r0
     79a:	51 1d       	adc	r21, r1
     79c:	11 24       	eor	r1, r1
     79e:	50 93 31 02 	sts	0x0231, r21	; 0x800231 <audio_system+0x3>
     7a2:	40 93 30 02 	sts	0x0230, r20	; 0x800230 <audio_system+0x2>
     7a6:	7a e0       	ldi	r23, 0x0A	; 10
     7a8:	b7 9f       	mul	r27, r23
     7aa:	20 0d       	add	r18, r0
     7ac:	31 1d       	adc	r19, r1
     7ae:	11 24       	eor	r1, r1
     7b0:	30 93 33 02 	sts	0x0233, r19	; 0x800233 <audio_system+0x5>
     7b4:	20 93 32 02 	sts	0x0232, r18	; 0x800232 <audio_system+0x4>
     7b8:	7a e0       	ldi	r23, 0x0A	; 10
     7ba:	a7 9f       	mul	r26, r23
     7bc:	80 0d       	add	r24, r0
     7be:	91 1d       	adc	r25, r1
     7c0:	11 24       	eor	r1, r1
     7c2:	90 93 35 02 	sts	0x0235, r25	; 0x800235 <audio_system+0x7>
     7c6:	80 93 34 02 	sts	0x0234, r24	; 0x800234 <audio_system+0x6>
     7ca:	61 30       	cpi	r22, 0x01	; 1
     7cc:	71 f4       	brne	.+28     	; 0x7ea <_Z16color_fade_functPh+0xd2>
     7ce:	e8 81       	ld	r30, Y
     7d0:	f0 e0       	ldi	r31, 0x00	; 0
     7d2:	ee 0f       	add	r30, r30
     7d4:	ff 1f       	adc	r31, r31
     7d6:	e2 5e       	subi	r30, 0xE2	; 226
     7d8:	fd 4f       	sbci	r31, 0xFD	; 253
     7da:	01 90       	ld	r0, Z+
     7dc:	f0 81       	ld	r31, Z
     7de:	e0 2d       	mov	r30, r0
     7e0:	60 81       	ld	r22, Z
     7e2:	70 e0       	ldi	r23, 0x00	; 0
     7e4:	46 17       	cp	r20, r22
     7e6:	57 07       	cpc	r21, r23
     7e8:	0c f4       	brge	.+2      	; 0x7ec <_Z16color_fade_functPh+0xd4>
     7ea:	ba 01       	movw	r22, r20
     7ec:	70 93 31 02 	sts	0x0231, r23	; 0x800231 <audio_system+0x3>
     7f0:	60 93 30 02 	sts	0x0230, r22	; 0x800230 <audio_system+0x2>
     7f4:	b1 30       	cpi	r27, 0x01	; 1
     7f6:	71 f4       	brne	.+28     	; 0x814 <_Z16color_fade_functPh+0xfc>
     7f8:	e8 81       	ld	r30, Y
     7fa:	f0 e0       	ldi	r31, 0x00	; 0
     7fc:	ee 0f       	add	r30, r30
     7fe:	ff 1f       	adc	r31, r31
     800:	e2 5e       	subi	r30, 0xE2	; 226
     802:	fd 4f       	sbci	r31, 0xFD	; 253
     804:	01 90       	ld	r0, Z+
     806:	f0 81       	ld	r31, Z
     808:	e0 2d       	mov	r30, r0
     80a:	41 81       	ldd	r20, Z+1	; 0x01
     80c:	50 e0       	ldi	r21, 0x00	; 0
     80e:	24 17       	cp	r18, r20
     810:	35 07       	cpc	r19, r21
     812:	0c f4       	brge	.+2      	; 0x816 <_Z16color_fade_functPh+0xfe>
     814:	a9 01       	movw	r20, r18
     816:	50 93 33 02 	sts	0x0233, r21	; 0x800233 <audio_system+0x5>
     81a:	40 93 32 02 	sts	0x0232, r20	; 0x800232 <audio_system+0x4>
     81e:	a1 30       	cpi	r26, 0x01	; 1
     820:	71 f4       	brne	.+28     	; 0x83e <_Z16color_fade_functPh+0x126>
     822:	e8 81       	ld	r30, Y
     824:	f0 e0       	ldi	r31, 0x00	; 0
     826:	ee 0f       	add	r30, r30
     828:	ff 1f       	adc	r31, r31
     82a:	e2 5e       	subi	r30, 0xE2	; 226
     82c:	fd 4f       	sbci	r31, 0xFD	; 253
     82e:	01 90       	ld	r0, Z+
     830:	f0 81       	ld	r31, Z
     832:	e0 2d       	mov	r30, r0
     834:	22 81       	ldd	r18, Z+2	; 0x02
     836:	30 e0       	ldi	r19, 0x00	; 0
     838:	82 17       	cp	r24, r18
     83a:	93 07       	cpc	r25, r19
     83c:	0c f4       	brge	.+2      	; 0x840 <_Z16color_fade_functPh+0x128>
     83e:	9c 01       	movw	r18, r24
     840:	30 93 35 02 	sts	0x0235, r19	; 0x800235 <audio_system+0x7>
     844:	20 93 34 02 	sts	0x0234, r18	; 0x800234 <audio_system+0x6>
     848:	a2 de       	rcall	.-700    	; 0x58e <_Z12update_stripv>
     84a:	8a e0       	ldi	r24, 0x0A	; 10
     84c:	90 e0       	ldi	r25, 0x00	; 0
     84e:	0e 94 f4 0d 	call	0x1be8	; 0x1be8 <vTaskDelay>
     852:	65 cf       	rjmp	.-310    	; 0x71e <_Z16color_fade_functPh+0x6>
     854:	df 91       	pop	r29
     856:	cf 91       	pop	r28
     858:	08 95       	ret

0000085a <_Z18svetlost_mod_functch>:
     85a:	cf 92       	push	r12
     85c:	df 92       	push	r13
     85e:	ef 92       	push	r14
     860:	ff 92       	push	r15
     862:	1f 93       	push	r17
     864:	cf 93       	push	r28
     866:	df 93       	push	r29
     868:	18 2f       	mov	r17, r24
     86a:	88 e0       	ldi	r24, 0x08	; 8
     86c:	18 9f       	mul	r17, r24
     86e:	e0 01       	movw	r28, r0
     870:	11 24       	eor	r1, r1
     872:	c6 2e       	mov	r12, r22
     874:	d1 2c       	mov	r13, r1
     876:	e1 2c       	mov	r14, r1
     878:	f1 2c       	mov	r15, r1
     87a:	80 91 36 02 	lds	r24, 0x0236	; 0x800236 <audio_system+0x8>
     87e:	90 91 37 02 	lds	r25, 0x0237	; 0x800237 <audio_system+0x9>
     882:	11 23       	and	r17, r17
     884:	21 f0       	breq	.+8      	; 0x88e <_Z18svetlost_mod_functch+0x34>
     886:	8f 3f       	cpi	r24, 0xFF	; 255
     888:	91 05       	cpc	r25, r1
     88a:	24 f0       	brlt	.+8      	; 0x894 <_Z18svetlost_mod_functch+0x3a>
     88c:	22 c0       	rjmp	.+68     	; 0x8d2 <_Z18svetlost_mod_functch+0x78>
     88e:	18 16       	cp	r1, r24
     890:	19 06       	cpc	r1, r25
     892:	fc f4       	brge	.+62     	; 0x8d2 <_Z18svetlost_mod_functch+0x78>
     894:	8c 0f       	add	r24, r28
     896:	9d 1f       	adc	r25, r29
     898:	97 ff       	sbrs	r25, 7
     89a:	02 c0       	rjmp	.+4      	; 0x8a0 <_Z18svetlost_mod_functch+0x46>
     89c:	80 e0       	ldi	r24, 0x00	; 0
     89e:	90 e0       	ldi	r25, 0x00	; 0
     8a0:	8f 3f       	cpi	r24, 0xFF	; 255
     8a2:	91 05       	cpc	r25, r1
     8a4:	19 f0       	breq	.+6      	; 0x8ac <_Z18svetlost_mod_functch+0x52>
     8a6:	14 f0       	brlt	.+4      	; 0x8ac <_Z18svetlost_mod_functch+0x52>
     8a8:	8f ef       	ldi	r24, 0xFF	; 255
     8aa:	90 e0       	ldi	r25, 0x00	; 0
     8ac:	90 93 37 02 	sts	0x0237, r25	; 0x800237 <audio_system+0x9>
     8b0:	80 93 36 02 	sts	0x0236, r24	; 0x800236 <audio_system+0x8>
     8b4:	6c de       	rcall	.-808    	; 0x58e <_Z12update_stripv>
     8b6:	c7 01       	movw	r24, r14
     8b8:	b6 01       	movw	r22, r12
     8ba:	0e 94 45 15 	call	0x2a8a	; 0x2a8a <__floatsisf>
     8be:	9b 01       	movw	r18, r22
     8c0:	ac 01       	movw	r20, r24
     8c2:	0e 94 47 14 	call	0x288e	; 0x288e <__addsf3>
     8c6:	0e 94 17 15 	call	0x2a2e	; 0x2a2e <__fixunssfsi>
     8ca:	cb 01       	movw	r24, r22
     8cc:	0e 94 f4 0d 	call	0x1be8	; 0x1be8 <vTaskDelay>
     8d0:	d4 cf       	rjmp	.-88     	; 0x87a <_Z18svetlost_mod_functch+0x20>
     8d2:	df 91       	pop	r29
     8d4:	cf 91       	pop	r28
     8d6:	1f 91       	pop	r17
     8d8:	ff 90       	pop	r15
     8da:	ef 90       	pop	r14
     8dc:	df 90       	pop	r13
     8de:	cf 90       	pop	r12
     8e0:	08 95       	ret

000008e2 <_Z14strip_mode_chgPKc>:
     8e2:	61 e8       	ldi	r22, 0x81	; 129
     8e4:	72 e0       	ldi	r23, 0x02	; 2
     8e6:	0e 94 c4 17 	call	0x2f88	; 0x2f88 <strcmp>
     8ea:	89 2b       	or	r24, r25
     8ec:	19 f0       	breq	.+6      	; 0x8f4 <_Z14strip_mode_chgPKc+0x12>
     8ee:	84 e0       	ldi	r24, 0x04	; 4
     8f0:	90 e0       	ldi	r25, 0x00	; 0
     8f2:	11 c0       	rjmp	.+34     	; 0x916 <_Z14strip_mode_chgPKc+0x34>
     8f4:	80 91 2e 02 	lds	r24, 0x022E	; 0x80022e <audio_system>
     8f8:	90 91 2f 02 	lds	r25, 0x022F	; 0x80022f <audio_system+0x1>
     8fc:	84 30       	cpi	r24, 0x04	; 4
     8fe:	91 05       	cpc	r25, r1
     900:	29 f4       	brne	.+10     	; 0x90c <_Z14strip_mode_chgPKc+0x2a>
     902:	10 92 2f 02 	sts	0x022F, r1	; 0x80022f <audio_system+0x1>
     906:	10 92 2e 02 	sts	0x022E, r1	; 0x80022e <audio_system>
     90a:	09 c0       	rjmp	.+18     	; 0x91e <_Z14strip_mode_chgPKc+0x3c>
     90c:	01 96       	adiw	r24, 0x01	; 1
     90e:	63 e0       	ldi	r22, 0x03	; 3
     910:	70 e0       	ldi	r23, 0x00	; 0
     912:	0e 94 5c 16 	call	0x2cb8	; 0x2cb8 <__udivmodhi4>
     916:	90 93 2f 02 	sts	0x022F, r25	; 0x80022f <audio_system+0x1>
     91a:	80 93 2e 02 	sts	0x022E, r24	; 0x80022e <audio_system>
     91e:	40 91 2e 02 	lds	r20, 0x022E	; 0x80022e <audio_system>
     922:	50 91 2f 02 	lds	r21, 0x022F	; 0x80022f <audio_system+0x1>
     926:	61 e0       	ldi	r22, 0x01	; 1
     928:	85 e4       	ldi	r24, 0x45	; 69
     92a:	93 e0       	ldi	r25, 0x03	; 3
     92c:	0e 94 50 10 	call	0x20a0	; 0x20a0 <_ZN8EEPROM_t4pisiEhj>
     930:	fd cd       	rjmp	.-1030   	; 0x52c <_Z19deleteStripSubTasksv>

00000932 <_Z4exitv>:
     932:	10 92 bc 02 	sts	0x02BC, r1	; 0x8002bc <event_struct>
     936:	10 92 bd 02 	sts	0x02BD, r1	; 0x8002bd <event_struct+0x1>
     93a:	81 e0       	ldi	r24, 0x01	; 1
     93c:	80 93 cf 02 	sts	0x02CF, r24	; 0x8002cf <event_struct+0x13>
     940:	a3 de       	rcall	.-698    	; 0x688 <_Z11flash_stripv>
     942:	83 ec       	ldi	r24, 0xC3	; 195
     944:	92 e0       	ldi	r25, 0x02	; 2
     946:	0e 94 4d 10 	call	0x209a	; 0x209a <_ZN8castimer9ponastaviEv>
     94a:	8f ef       	ldi	r24, 0xFF	; 255
     94c:	90 e0       	ldi	r25, 0x00	; 0
     94e:	90 93 37 02 	sts	0x0237, r25	; 0x800237 <audio_system+0x9>
     952:	80 93 36 02 	sts	0x0236, r24	; 0x800236 <audio_system+0x8>
     956:	6f e0       	ldi	r22, 0x0F	; 15
     958:	8f ef       	ldi	r24, 0xFF	; 255
     95a:	7f df       	rcall	.-258    	; 0x85a <_Z18svetlost_mod_functch>
     95c:	88 ec       	ldi	r24, 0xC8	; 200
     95e:	90 e0       	ldi	r25, 0x00	; 0
     960:	0e 94 f4 0d 	call	0x1be8	; 0x1be8 <vTaskDelay>
     964:	80 91 4c 03 	lds	r24, 0x034C	; 0x80034c <audio_system_control>
     968:	90 91 4d 03 	lds	r25, 0x034D	; 0x80034d <audio_system_control+0x1>
     96c:	78 d7       	rcall	.+3824   	; 0x185e <eTaskGetState>
     96e:	83 30       	cpi	r24, 0x03	; 3
     970:	39 f4       	brne	.+14     	; 0x980 <_Z4exitv+0x4e>
     972:	80 91 4c 03 	lds	r24, 0x034C	; 0x80034c <audio_system_control>
     976:	90 91 4d 03 	lds	r25, 0x034D	; 0x80034d <audio_system_control+0x1>
     97a:	00 97       	sbiw	r24, 0x00	; 0
     97c:	09 f0       	breq	.+2      	; 0x980 <_Z4exitv+0x4e>
     97e:	a7 c7       	rjmp	.+3918   	; 0x18ce <vTaskResume>
     980:	08 95       	ret

00000982 <_Z24external_power_switch_evv>:
     982:	0f b6       	in	r0, 0x3f	; 63
     984:	f8 94       	cli
     986:	0f 92       	push	r0
     988:	0e 94 c5 12 	call	0x258a	; 0x258a <_Z8Shutdownv>
     98c:	2f ef       	ldi	r18, 0xFF	; 255
     98e:	89 ef       	ldi	r24, 0xF9	; 249
     990:	90 e0       	ldi	r25, 0x00	; 0
     992:	21 50       	subi	r18, 0x01	; 1
     994:	80 40       	sbci	r24, 0x00	; 0
     996:	90 40       	sbci	r25, 0x00	; 0
     998:	e1 f7       	brne	.-8      	; 0x992 <_Z24external_power_switch_evv+0x10>
     99a:	00 c0       	rjmp	.+0      	; 0x99c <_Z24external_power_switch_evv+0x1a>
     99c:	00 00       	nop
     99e:	41 e0       	ldi	r20, 0x01	; 1
     9a0:	68 e4       	ldi	r22, 0x48	; 72
     9a2:	84 e0       	ldi	r24, 0x04	; 4
     9a4:	0e 94 8f 10 	call	0x211e	; 0x211e <_Z11writeOUTPUThcb>
     9a8:	87 e3       	ldi	r24, 0x37	; 55
     9aa:	93 e0       	ldi	r25, 0x03	; 3
     9ac:	0e 94 4d 10 	call	0x209a	; 0x209a <_ZN8castimer9ponastaviEv>
     9b0:	0f 90       	pop	r0
     9b2:	0f be       	out	0x3f, r0	; 63
     9b4:	ed e3       	ldi	r30, 0x3D	; 61
     9b6:	f2 e0       	ldi	r31, 0x02	; 2
     9b8:	86 81       	ldd	r24, Z+6	; 0x06
     9ba:	82 60       	ori	r24, 0x02	; 2
     9bc:	86 83       	std	Z+6, r24	; 0x06
     9be:	08 95       	ret

000009c0 <_Z24internal_power_switch_evv>:
     9c0:	0f b6       	in	r0, 0x3f	; 63
     9c2:	f8 94       	cli
     9c4:	0f 92       	push	r0
     9c6:	0e 94 c5 12 	call	0x258a	; 0x258a <_Z8Shutdownv>
     9ca:	2f ef       	ldi	r18, 0xFF	; 255
     9cc:	89 ef       	ldi	r24, 0xF9	; 249
     9ce:	90 e0       	ldi	r25, 0x00	; 0
     9d0:	21 50       	subi	r18, 0x01	; 1
     9d2:	80 40       	sbci	r24, 0x00	; 0
     9d4:	90 40       	sbci	r25, 0x00	; 0
     9d6:	e1 f7       	brne	.-8      	; 0x9d0 <_Z24internal_power_switch_evv+0x10>
     9d8:	00 c0       	rjmp	.+0      	; 0x9da <_Z24internal_power_switch_evv+0x1a>
     9da:	00 00       	nop
     9dc:	40 e0       	ldi	r20, 0x00	; 0
     9de:	68 e4       	ldi	r22, 0x48	; 72
     9e0:	84 e0       	ldi	r24, 0x04	; 4
     9e2:	0e 94 8f 10 	call	0x211e	; 0x211e <_Z11writeOUTPUThcb>
     9e6:	87 e3       	ldi	r24, 0x37	; 55
     9e8:	93 e0       	ldi	r25, 0x03	; 3
     9ea:	0e 94 4d 10 	call	0x209a	; 0x209a <_ZN8castimer9ponastaviEv>
     9ee:	2f ef       	ldi	r18, 0xFF	; 255
     9f0:	89 ef       	ldi	r24, 0xF9	; 249
     9f2:	90 e0       	ldi	r25, 0x00	; 0
     9f4:	21 50       	subi	r18, 0x01	; 1
     9f6:	80 40       	sbci	r24, 0x00	; 0
     9f8:	90 40       	sbci	r25, 0x00	; 0
     9fa:	e1 f7       	brne	.-8      	; 0x9f4 <_Z24internal_power_switch_evv+0x34>
     9fc:	00 c0       	rjmp	.+0      	; 0x9fe <_Z24internal_power_switch_evv+0x3e>
     9fe:	00 00       	nop
     a00:	ed e3       	ldi	r30, 0x3D	; 61
     a02:	f2 e0       	ldi	r31, 0x02	; 2
     a04:	86 81       	ldd	r24, Z+6	; 0x06
     a06:	8d 7f       	andi	r24, 0xFD	; 253
     a08:	86 83       	std	Z+6, r24	; 0x06
     a0a:	0f 90       	pop	r0
     a0c:	0f be       	out	0x3f, r0	; 63
     a0e:	08 95       	ret

00000a10 <_Z6eventsPv>:
     a10:	cf ef       	ldi	r28, 0xFF	; 255
     a12:	d0 e0       	ldi	r29, 0x00	; 0
     a14:	11 e0       	ldi	r17, 0x01	; 1
     a16:	83 eb       	ldi	r24, 0xB3	; 179
     a18:	92 e0       	ldi	r25, 0x02	; 2
     a1a:	0e 94 51 11 	call	0x22a2	; 0x22a2 <_ZN4VHOD8vrednostEv>
     a1e:	88 23       	and	r24, r24
     a20:	29 f0       	breq	.+10     	; 0xa2c <_Z6eventsPv+0x1c>
     a22:	8e eb       	ldi	r24, 0xBE	; 190
     a24:	92 e0       	ldi	r25, 0x02	; 2
     a26:	0e 94 4d 10 	call	0x209a	; 0x209a <_ZN8castimer9ponastaviEv>
     a2a:	0b c0       	rjmp	.+22     	; 0xa42 <_Z6eventsPv+0x32>
     a2c:	8e eb       	ldi	r24, 0xBE	; 190
     a2e:	92 e0       	ldi	r25, 0x02	; 2
     a30:	0e 94 28 10 	call	0x2050	; 0x2050 <_ZN8castimer8vrednostEv>
     a34:	63 33       	cpi	r22, 0x33	; 51
     a36:	71 05       	cpc	r23, r1
     a38:	81 05       	cpc	r24, r1
     a3a:	91 05       	cpc	r25, r1
     a3c:	10 f0       	brcs	.+4      	; 0xa42 <_Z6eventsPv+0x32>
     a3e:	10 92 cf 02 	sts	0x02CF, r1	; 0x8002cf <event_struct+0x13>
     a42:	80 91 43 02 	lds	r24, 0x0243	; 0x800243 <Hardware+0x6>
     a46:	08 2f       	mov	r16, r24
     a48:	01 70       	andi	r16, 0x01	; 1
     a4a:	80 ff       	sbrs	r24, 0
     a4c:	ce c0       	rjmp	.+412    	; 0xbea <_Z6eventsPv+0x1da>
     a4e:	80 91 cf 02 	lds	r24, 0x02CF	; 0x8002cf <event_struct+0x13>
     a52:	81 11       	cpse	r24, r1
     a54:	ca c0       	rjmp	.+404    	; 0xbea <_Z6eventsPv+0x1da>
     a56:	80 91 bc 02 	lds	r24, 0x02BC	; 0x8002bc <event_struct>
     a5a:	88 23       	and	r24, r24
     a5c:	21 f0       	breq	.+8      	; 0xa66 <_Z6eventsPv+0x56>
     a5e:	81 30       	cpi	r24, 0x01	; 1
     a60:	09 f4       	brne	.+2      	; 0xa64 <_Z6eventsPv+0x54>
     a62:	3e c0       	rjmp	.+124    	; 0xae0 <_Z6eventsPv+0xd0>
     a64:	c2 c0       	rjmp	.+388    	; 0xbea <_Z6eventsPv+0x1da>
     a66:	88 ec       	ldi	r24, 0xC8	; 200
     a68:	92 e0       	ldi	r25, 0x02	; 2
     a6a:	0e 94 28 10 	call	0x2050	; 0x2050 <_ZN8castimer8vrednostEv>
     a6e:	69 3e       	cpi	r22, 0xE9	; 233
     a70:	73 40       	sbci	r23, 0x03	; 3
     a72:	81 05       	cpc	r24, r1
     a74:	91 05       	cpc	r25, r1
     a76:	68 f1       	brcs	.+90     	; 0xad2 <_Z6eventsPv+0xc2>
     a78:	00 93 bc 02 	sts	0x02BC, r16	; 0x8002bc <event_struct>
     a7c:	10 92 bd 02 	sts	0x02BD, r1	; 0x8002bd <event_struct+0x1>
     a80:	83 ec       	ldi	r24, 0xC3	; 195
     a82:	92 e0       	ldi	r25, 0x02	; 2
     a84:	0e 94 4d 10 	call	0x209a	; 0x209a <_ZN8castimer9ponastaviEv>
     a88:	88 ec       	ldi	r24, 0xC8	; 200
     a8a:	92 e0       	ldi	r25, 0x02	; 2
     a8c:	0e 94 4d 10 	call	0x209a	; 0x209a <_ZN8castimer9ponastaviEv>
     a90:	80 91 4c 03 	lds	r24, 0x034C	; 0x80034c <audio_system_control>
     a94:	90 91 4d 03 	lds	r25, 0x034D	; 0x80034d <audio_system_control+0x1>
     a98:	e2 d6       	rcall	.+3524   	; 0x185e <eTaskGetState>
     a9a:	83 30       	cpi	r24, 0x03	; 3
     a9c:	39 f0       	breq	.+14     	; 0xaac <_Z6eventsPv+0x9c>
     a9e:	80 91 4c 03 	lds	r24, 0x034C	; 0x80034c <audio_system_control>
     aa2:	90 91 4d 03 	lds	r25, 0x034D	; 0x80034d <audio_system_control+0x1>
     aa6:	00 97       	sbiw	r24, 0x00	; 0
     aa8:	09 f0       	breq	.+2      	; 0xaac <_Z6eventsPv+0x9c>
     aaa:	ae c0       	rjmp	.+348    	; 0xc08 <_Z6eventsPv+0x1f8>
     aac:	3f dd       	rcall	.-1410   	; 0x52c <_Z19deleteStripSubTasksv>
     aae:	6f e0       	ldi	r22, 0x0F	; 15
     ab0:	8f ef       	ldi	r24, 0xFF	; 255
     ab2:	d3 de       	rcall	.-602    	; 0x85a <_Z18svetlost_mod_functch>
     ab4:	e9 dd       	rcall	.-1070   	; 0x688 <_Z11flash_stripv>
     ab6:	d0 93 37 02 	sts	0x0237, r29	; 0x800237 <audio_system+0x9>
     aba:	c0 93 36 02 	sts	0x0236, r28	; 0x800236 <audio_system+0x8>
     abe:	8d eb       	ldi	r24, 0xBD	; 189
     ac0:	92 e0       	ldi	r25, 0x02	; 2
     ac2:	2a de       	rcall	.-940    	; 0x718 <_Z16color_fade_functPh>
     ac4:	80 e9       	ldi	r24, 0x90	; 144
     ac6:	91 e0       	ldi	r25, 0x01	; 1
     ac8:	0e 94 f4 0d 	call	0x1be8	; 0x1be8 <vTaskDelay>
     acc:	10 93 cf 02 	sts	0x02CF, r17	; 0x8002cf <event_struct+0x13>
     ad0:	8c c0       	rjmp	.+280    	; 0xbea <_Z6eventsPv+0x1da>
     ad2:	83 eb       	ldi	r24, 0xB3	; 179
     ad4:	92 e0       	ldi	r25, 0x02	; 2
     ad6:	0e 94 51 11 	call	0x22a2	; 0x22a2 <_ZN4VHOD8vrednostEv>
     ada:	81 11       	cpse	r24, r1
     adc:	86 c0       	rjmp	.+268    	; 0xbea <_Z6eventsPv+0x1da>
     ade:	60 c0       	rjmp	.+192    	; 0xba0 <_Z6eventsPv+0x190>
     ae0:	83 ec       	ldi	r24, 0xC3	; 195
     ae2:	92 e0       	ldi	r25, 0x02	; 2
     ae4:	0e 94 28 10 	call	0x2050	; 0x2050 <_ZN8castimer8vrednostEv>
     ae8:	61 37       	cpi	r22, 0x71	; 113
     aea:	77 41       	sbci	r23, 0x17	; 23
     aec:	81 05       	cpc	r24, r1
     aee:	91 05       	cpc	r25, r1
     af0:	08 f0       	brcs	.+2      	; 0xaf4 <_Z6eventsPv+0xe4>
     af2:	1f df       	rcall	.-450    	; 0x932 <_Z4exitv>
     af4:	83 eb       	ldi	r24, 0xB3	; 179
     af6:	92 e0       	ldi	r25, 0x02	; 2
     af8:	0e 94 51 11 	call	0x22a2	; 0x22a2 <_ZN4VHOD8vrednostEv>
     afc:	88 23       	and	r24, r24
     afe:	09 f4       	brne	.+2      	; 0xb02 <_Z6eventsPv+0xf2>
     b00:	54 c0       	rjmp	.+168    	; 0xbaa <_Z6eventsPv+0x19a>
     b02:	88 ec       	ldi	r24, 0xC8	; 200
     b04:	92 e0       	ldi	r25, 0x02	; 2
     b06:	0e 94 28 10 	call	0x2050	; 0x2050 <_ZN8castimer8vrednostEv>
     b0a:	70 93 ce 02 	sts	0x02CE, r23	; 0x8002ce <event_struct+0x12>
     b0e:	60 93 cd 02 	sts	0x02CD, r22	; 0x8002cd <event_struct+0x11>
     b12:	83 ec       	ldi	r24, 0xC3	; 195
     b14:	92 e0       	ldi	r25, 0x02	; 2
     b16:	0e 94 4d 10 	call	0x209a	; 0x209a <_ZN8castimer9ponastaviEv>
     b1a:	80 91 cd 02 	lds	r24, 0x02CD	; 0x8002cd <event_struct+0x11>
     b1e:	90 91 ce 02 	lds	r25, 0x02CE	; 0x8002ce <event_struct+0x12>
     b22:	89 3e       	cpi	r24, 0xE9	; 233
     b24:	93 40       	sbci	r25, 0x03	; 3
     b26:	08 f4       	brcc	.+2      	; 0xb2a <_Z6eventsPv+0x11a>
     b28:	60 c0       	rjmp	.+192    	; 0xbea <_Z6eventsPv+0x1da>
     b2a:	10 93 cf 02 	sts	0x02CF, r17	; 0x8002cf <event_struct+0x13>
     b2e:	80 91 bd 02 	lds	r24, 0x02BD	; 0x8002bd <event_struct+0x1>
     b32:	81 30       	cpi	r24, 0x01	; 1
     b34:	61 f1       	breq	.+88     	; 0xb8e <_Z6eventsPv+0x17e>
     b36:	80 f0       	brcs	.+32     	; 0xb58 <_Z6eventsPv+0x148>
     b38:	82 30       	cpi	r24, 0x02	; 2
     b3a:	61 f1       	breq	.+88     	; 0xb94 <_Z6eventsPv+0x184>
     b3c:	83 30       	cpi	r24, 0x03	; 3
     b3e:	81 f5       	brne	.+96     	; 0xba0 <_Z6eventsPv+0x190>
     b40:	80 91 38 02 	lds	r24, 0x0238	; 0x800238 <audio_system+0xa>
     b44:	90 91 39 02 	lds	r25, 0x0239	; 0x800239 <audio_system+0xb>
     b48:	01 96       	adiw	r24, 0x01	; 1
     b4a:	81 70       	andi	r24, 0x01	; 1
     b4c:	99 27       	eor	r25, r25
     b4e:	90 93 39 02 	sts	0x0239, r25	; 0x800239 <audio_system+0xb>
     b52:	80 93 38 02 	sts	0x0238, r24	; 0x800238 <audio_system+0xa>
     b56:	23 c0       	rjmp	.+70     	; 0xb9e <_Z6eventsPv+0x18e>
     b58:	80 91 43 02 	lds	r24, 0x0243	; 0x800243 <Hardware+0x6>
     b5c:	84 fd       	sbrc	r24, 4
     b5e:	02 c0       	rjmp	.+4      	; 0xb64 <_Z6eventsPv+0x154>
     b60:	80 61       	ori	r24, 0x10	; 16
     b62:	01 c0       	rjmp	.+2      	; 0xb66 <_Z6eventsPv+0x156>
     b64:	8f 7e       	andi	r24, 0xEF	; 239
     b66:	80 93 43 02 	sts	0x0243, r24	; 0x800243 <Hardware+0x6>
     b6a:	80 91 43 02 	lds	r24, 0x0243	; 0x800243 <Hardware+0x6>
     b6e:	84 ff       	sbrs	r24, 4
     b70:	16 c0       	rjmp	.+44     	; 0xb9e <_Z6eventsPv+0x18e>
     b72:	80 91 4a 03 	lds	r24, 0x034A	; 0x80034a <zaslon_control>
     b76:	90 91 4b 03 	lds	r25, 0x034B	; 0x80034b <zaslon_control+0x1>
     b7a:	71 d6       	rcall	.+3298   	; 0x185e <eTaskGetState>
     b7c:	83 30       	cpi	r24, 0x03	; 3
     b7e:	79 f4       	brne	.+30     	; 0xb9e <_Z6eventsPv+0x18e>
     b80:	80 91 4a 03 	lds	r24, 0x034A	; 0x80034a <zaslon_control>
     b84:	90 91 4b 03 	lds	r25, 0x034B	; 0x80034b <zaslon_control+0x1>
     b88:	00 97       	sbiw	r24, 0x00	; 0
     b8a:	41 f4       	brne	.+16     	; 0xb9c <_Z6eventsPv+0x18c>
     b8c:	08 c0       	rjmp	.+16     	; 0xb9e <_Z6eventsPv+0x18e>
     b8e:	89 e8       	ldi	r24, 0x89	; 137
     b90:	92 e0       	ldi	r25, 0x02	; 2
     b92:	02 c0       	rjmp	.+4      	; 0xb98 <_Z6eventsPv+0x188>
     b94:	81 e8       	ldi	r24, 0x81	; 129
     b96:	92 e0       	ldi	r25, 0x02	; 2
     b98:	a4 de       	rcall	.-696    	; 0x8e2 <_Z14strip_mode_chgPKc>
     b9a:	01 c0       	rjmp	.+2      	; 0xb9e <_Z6eventsPv+0x18e>
     b9c:	98 d6       	rcall	.+3376   	; 0x18ce <vTaskResume>
     b9e:	c9 de       	rcall	.-622    	; 0x932 <_Z4exitv>
     ba0:	88 ec       	ldi	r24, 0xC8	; 200
     ba2:	92 e0       	ldi	r25, 0x02	; 2
     ba4:	0e 94 4d 10 	call	0x209a	; 0x209a <_ZN8castimer9ponastaviEv>
     ba8:	20 c0       	rjmp	.+64     	; 0xbea <_Z6eventsPv+0x1da>
     baa:	80 91 cd 02 	lds	r24, 0x02CD	; 0x8002cd <event_struct+0x11>
     bae:	90 91 ce 02 	lds	r25, 0x02CE	; 0x8002ce <event_struct+0x12>
     bb2:	00 97       	sbiw	r24, 0x00	; 0
     bb4:	d1 f0       	breq	.+52     	; 0xbea <_Z6eventsPv+0x1da>
     bb6:	84 3f       	cpi	r24, 0xF4	; 244
     bb8:	91 40       	sbci	r25, 0x01	; 1
     bba:	40 f4       	brcc	.+16     	; 0xbcc <_Z6eventsPv+0x1bc>
     bbc:	80 91 bd 02 	lds	r24, 0x02BD	; 0x8002bd <event_struct+0x1>
     bc0:	90 e0       	ldi	r25, 0x00	; 0
     bc2:	01 96       	adiw	r24, 0x01	; 1
     bc4:	83 70       	andi	r24, 0x03	; 3
     bc6:	99 27       	eor	r25, r25
     bc8:	80 93 bd 02 	sts	0x02BD, r24	; 0x8002bd <event_struct+0x1>
     bcc:	d0 93 37 02 	sts	0x0237, r29	; 0x800237 <audio_system+0x9>
     bd0:	c0 93 36 02 	sts	0x0236, r28	; 0x800236 <audio_system+0x8>
     bd4:	8d eb       	ldi	r24, 0xBD	; 189
     bd6:	92 e0       	ldi	r25, 0x02	; 2
     bd8:	9f dd       	rcall	.-1218   	; 0x718 <_Z16color_fade_functPh>
     bda:	88 ec       	ldi	r24, 0xC8	; 200
     bdc:	92 e0       	ldi	r25, 0x02	; 2
     bde:	0e 94 4d 10 	call	0x209a	; 0x209a <_ZN8castimer9ponastaviEv>
     be2:	10 92 ce 02 	sts	0x02CE, r1	; 0x8002ce <event_struct+0x12>
     be6:	10 92 cd 02 	sts	0x02CD, r1	; 0x8002cd <event_struct+0x11>
     bea:	8c e3       	ldi	r24, 0x3C	; 60
     bec:	93 e0       	ldi	r25, 0x03	; 3
     bee:	0e 94 51 11 	call	0x22a2	; 0x22a2 <_ZN4VHOD8vrednostEv>
     bf2:	88 23       	and	r24, r24
     bf4:	61 f0       	breq	.+24     	; 0xc0e <_Z6eventsPv+0x1fe>
     bf6:	80 91 43 02 	lds	r24, 0x0243	; 0x800243 <Hardware+0x6>
     bfa:	81 fd       	sbrc	r24, 1
     bfc:	08 c0       	rjmp	.+16     	; 0xc0e <_Z6eventsPv+0x1fe>
     bfe:	c1 de       	rcall	.-638    	; 0x982 <_Z24external_power_switch_evv>
     c00:	8a e0       	ldi	r24, 0x0A	; 10
     c02:	90 e0       	ldi	r25, 0x00	; 0
     c04:	f1 d7       	rcall	.+4066   	; 0x1be8 <vTaskDelay>
     c06:	07 cf       	rjmp	.-498    	; 0xa16 <_Z6eventsPv+0x6>
     c08:	0e 94 48 0e 	call	0x1c90	; 0x1c90 <vTaskSuspend>
     c0c:	4f cf       	rjmp	.-354    	; 0xaac <_Z6eventsPv+0x9c>
     c0e:	8c e3       	ldi	r24, 0x3C	; 60
     c10:	93 e0       	ldi	r25, 0x03	; 3
     c12:	0e 94 51 11 	call	0x22a2	; 0x22a2 <_ZN4VHOD8vrednostEv>
     c16:	81 11       	cpse	r24, r1
     c18:	f3 cf       	rjmp	.-26     	; 0xc00 <_Z6eventsPv+0x1f0>
     c1a:	80 91 43 02 	lds	r24, 0x0243	; 0x800243 <Hardware+0x6>
     c1e:	81 ff       	sbrs	r24, 1
     c20:	ef cf       	rjmp	.-34     	; 0xc00 <_Z6eventsPv+0x1f0>
     c22:	ce de       	rcall	.-612    	; 0x9c0 <_Z24internal_power_switch_evv>
     c24:	ed cf       	rjmp	.-38     	; 0xc00 <_Z6eventsPv+0x1f0>

00000c26 <_GLOBAL__sub_I_event_struct>:
     c26:	ec eb       	ldi	r30, 0xBC	; 188
     c28:	f2 e0       	ldi	r31, 0x02	; 2
     c2a:	10 82       	st	Z, r1
     c2c:	11 82       	std	Z+1, r1	; 0x01
     c2e:	12 8a       	std	Z+18, r1	; 0x12
     c30:	11 8a       	std	Z+17, r1	; 0x11
     c32:	13 8a       	std	Z+19, r1	; 0x13
     c34:	e3 eb       	ldi	r30, 0xB3	; 179
     c36:	f2 e0       	ldi	r31, 0x02	; 2
     c38:	87 e4       	ldi	r24, 0x47	; 71
     c3a:	86 83       	std	Z+6, r24	; 0x06
     c3c:	85 e0       	ldi	r24, 0x05	; 5
     c3e:	90 e0       	ldi	r25, 0x00	; 0
     c40:	95 83       	std	Z+5, r25	; 0x05
     c42:	84 83       	std	Z+4, r24	; 0x04
     c44:	10 86       	std	Z+8, r1	; 0x08
     c46:	17 82       	std	Z+7, r1	; 0x07
     c48:	08 95       	ret

00000c4a <pvPortMalloc>:
     c4a:	cf 93       	push	r28
     c4c:	df 93       	push	r29
     c4e:	ec 01       	movw	r28, r24
     c50:	ab d6       	rcall	.+3414   	; 0x19a8 <vTaskSuspendAll>
     c52:	ce 01       	movw	r24, r28
     c54:	0e 94 9a 16 	call	0x2d34	; 0x2d34 <malloc>
     c58:	ec 01       	movw	r28, r24
     c5a:	59 d7       	rcall	.+3762   	; 0x1b0e <xTaskResumeAll>
     c5c:	ce 01       	movw	r24, r28
     c5e:	df 91       	pop	r29
     c60:	cf 91       	pop	r28
     c62:	08 95       	ret

00000c64 <vPortFree>:
     c64:	cf 93       	push	r28
     c66:	df 93       	push	r29
     c68:	00 97       	sbiw	r24, 0x00	; 0
     c6a:	41 f0       	breq	.+16     	; 0xc7c <vPortFree+0x18>
     c6c:	ec 01       	movw	r28, r24
     c6e:	9c d6       	rcall	.+3384   	; 0x19a8 <vTaskSuspendAll>
     c70:	ce 01       	movw	r24, r28
     c72:	0e 94 32 17 	call	0x2e64	; 0x2e64 <free>
     c76:	df 91       	pop	r29
     c78:	cf 91       	pop	r28
     c7a:	49 c7       	rjmp	.+3730   	; 0x1b0e <xTaskResumeAll>
     c7c:	df 91       	pop	r29
     c7e:	cf 91       	pop	r28
     c80:	08 95       	ret

00000c82 <vListInitialise>:
     c82:	fc 01       	movw	r30, r24
     c84:	03 96       	adiw	r24, 0x03	; 3
     c86:	92 83       	std	Z+2, r25	; 0x02
     c88:	81 83       	std	Z+1, r24	; 0x01
     c8a:	2f ef       	ldi	r18, 0xFF	; 255
     c8c:	3f ef       	ldi	r19, 0xFF	; 255
     c8e:	34 83       	std	Z+4, r19	; 0x04
     c90:	23 83       	std	Z+3, r18	; 0x03
     c92:	96 83       	std	Z+6, r25	; 0x06
     c94:	85 83       	std	Z+5, r24	; 0x05
     c96:	90 87       	std	Z+8, r25	; 0x08
     c98:	87 83       	std	Z+7, r24	; 0x07
     c9a:	10 82       	st	Z, r1
     c9c:	08 95       	ret

00000c9e <vListInitialiseItem>:
     c9e:	fc 01       	movw	r30, r24
     ca0:	11 86       	std	Z+9, r1	; 0x09
     ca2:	10 86       	std	Z+8, r1	; 0x08
     ca4:	08 95       	ret

00000ca6 <vListInsertEnd>:
     ca6:	cf 93       	push	r28
     ca8:	df 93       	push	r29
     caa:	9c 01       	movw	r18, r24
     cac:	fb 01       	movw	r30, r22
     cae:	dc 01       	movw	r26, r24
     cb0:	11 96       	adiw	r26, 0x01	; 1
     cb2:	cd 91       	ld	r28, X+
     cb4:	dc 91       	ld	r29, X
     cb6:	12 97       	sbiw	r26, 0x02	; 2
     cb8:	d3 83       	std	Z+3, r29	; 0x03
     cba:	c2 83       	std	Z+2, r28	; 0x02
     cbc:	8c 81       	ldd	r24, Y+4	; 0x04
     cbe:	9d 81       	ldd	r25, Y+5	; 0x05
     cc0:	95 83       	std	Z+5, r25	; 0x05
     cc2:	84 83       	std	Z+4, r24	; 0x04
     cc4:	8c 81       	ldd	r24, Y+4	; 0x04
     cc6:	9d 81       	ldd	r25, Y+5	; 0x05
     cc8:	dc 01       	movw	r26, r24
     cca:	13 96       	adiw	r26, 0x03	; 3
     ccc:	7c 93       	st	X, r23
     cce:	6e 93       	st	-X, r22
     cd0:	12 97       	sbiw	r26, 0x02	; 2
     cd2:	7d 83       	std	Y+5, r23	; 0x05
     cd4:	6c 83       	std	Y+4, r22	; 0x04
     cd6:	31 87       	std	Z+9, r19	; 0x09
     cd8:	20 87       	std	Z+8, r18	; 0x08
     cda:	f9 01       	movw	r30, r18
     cdc:	80 81       	ld	r24, Z
     cde:	8f 5f       	subi	r24, 0xFF	; 255
     ce0:	80 83       	st	Z, r24
     ce2:	df 91       	pop	r29
     ce4:	cf 91       	pop	r28
     ce6:	08 95       	ret

00000ce8 <vListInsert>:
     ce8:	0f 93       	push	r16
     cea:	1f 93       	push	r17
     cec:	cf 93       	push	r28
     cee:	df 93       	push	r29
     cf0:	8c 01       	movw	r16, r24
     cf2:	fb 01       	movw	r30, r22
     cf4:	80 81       	ld	r24, Z
     cf6:	91 81       	ldd	r25, Z+1	; 0x01
     cf8:	8f 3f       	cpi	r24, 0xFF	; 255
     cfa:	2f ef       	ldi	r18, 0xFF	; 255
     cfc:	92 07       	cpc	r25, r18
     cfe:	21 f4       	brne	.+8      	; 0xd08 <vListInsert+0x20>
     d00:	e8 01       	movw	r28, r16
     d02:	af 81       	ldd	r26, Y+7	; 0x07
     d04:	b8 85       	ldd	r27, Y+8	; 0x08
     d06:	0e c0       	rjmp	.+28     	; 0xd24 <vListInsert+0x3c>
     d08:	d8 01       	movw	r26, r16
     d0a:	13 96       	adiw	r26, 0x03	; 3
     d0c:	12 96       	adiw	r26, 0x02	; 2
     d0e:	2d 91       	ld	r18, X+
     d10:	3c 91       	ld	r19, X
     d12:	13 97       	sbiw	r26, 0x03	; 3
     d14:	e9 01       	movw	r28, r18
     d16:	48 81       	ld	r20, Y
     d18:	59 81       	ldd	r21, Y+1	; 0x01
     d1a:	84 17       	cp	r24, r20
     d1c:	95 07       	cpc	r25, r21
     d1e:	10 f0       	brcs	.+4      	; 0xd24 <vListInsert+0x3c>
     d20:	d9 01       	movw	r26, r18
     d22:	f4 cf       	rjmp	.-24     	; 0xd0c <vListInsert+0x24>
     d24:	12 96       	adiw	r26, 0x02	; 2
     d26:	8d 91       	ld	r24, X+
     d28:	9c 91       	ld	r25, X
     d2a:	13 97       	sbiw	r26, 0x03	; 3
     d2c:	93 83       	std	Z+3, r25	; 0x03
     d2e:	82 83       	std	Z+2, r24	; 0x02
     d30:	ec 01       	movw	r28, r24
     d32:	fd 83       	std	Y+5, r31	; 0x05
     d34:	ec 83       	std	Y+4, r30	; 0x04
     d36:	b5 83       	std	Z+5, r27	; 0x05
     d38:	a4 83       	std	Z+4, r26	; 0x04
     d3a:	13 96       	adiw	r26, 0x03	; 3
     d3c:	fc 93       	st	X, r31
     d3e:	ee 93       	st	-X, r30
     d40:	12 97       	sbiw	r26, 0x02	; 2
     d42:	11 87       	std	Z+9, r17	; 0x09
     d44:	00 87       	std	Z+8, r16	; 0x08
     d46:	f8 01       	movw	r30, r16
     d48:	80 81       	ld	r24, Z
     d4a:	8f 5f       	subi	r24, 0xFF	; 255
     d4c:	80 83       	st	Z, r24
     d4e:	df 91       	pop	r29
     d50:	cf 91       	pop	r28
     d52:	1f 91       	pop	r17
     d54:	0f 91       	pop	r16
     d56:	08 95       	ret

00000d58 <uxListRemove>:
     d58:	cf 93       	push	r28
     d5a:	df 93       	push	r29
     d5c:	fc 01       	movw	r30, r24
     d5e:	a0 85       	ldd	r26, Z+8	; 0x08
     d60:	b1 85       	ldd	r27, Z+9	; 0x09
     d62:	82 81       	ldd	r24, Z+2	; 0x02
     d64:	93 81       	ldd	r25, Z+3	; 0x03
     d66:	24 81       	ldd	r18, Z+4	; 0x04
     d68:	35 81       	ldd	r19, Z+5	; 0x05
     d6a:	ec 01       	movw	r28, r24
     d6c:	3d 83       	std	Y+5, r19	; 0x05
     d6e:	2c 83       	std	Y+4, r18	; 0x04
     d70:	c4 81       	ldd	r28, Z+4	; 0x04
     d72:	d5 81       	ldd	r29, Z+5	; 0x05
     d74:	9b 83       	std	Y+3, r25	; 0x03
     d76:	8a 83       	std	Y+2, r24	; 0x02
     d78:	11 96       	adiw	r26, 0x01	; 1
     d7a:	8d 91       	ld	r24, X+
     d7c:	9c 91       	ld	r25, X
     d7e:	12 97       	sbiw	r26, 0x02	; 2
     d80:	e8 17       	cp	r30, r24
     d82:	f9 07       	cpc	r31, r25
     d84:	21 f4       	brne	.+8      	; 0xd8e <uxListRemove+0x36>
     d86:	12 96       	adiw	r26, 0x02	; 2
     d88:	dc 93       	st	X, r29
     d8a:	ce 93       	st	-X, r28
     d8c:	11 97       	sbiw	r26, 0x01	; 1
     d8e:	11 86       	std	Z+9, r1	; 0x09
     d90:	10 86       	std	Z+8, r1	; 0x08
     d92:	8c 91       	ld	r24, X
     d94:	81 50       	subi	r24, 0x01	; 1
     d96:	8c 93       	st	X, r24
     d98:	8c 91       	ld	r24, X
     d9a:	df 91       	pop	r29
     d9c:	cf 91       	pop	r28
     d9e:	08 95       	ret

00000da0 <pxPortInitialiseStack>:
     da0:	fc 01       	movw	r30, r24
     da2:	60 83       	st	Z, r22
     da4:	31 97       	sbiw	r30, 0x01	; 1
     da6:	70 83       	st	Z, r23
     da8:	31 97       	sbiw	r30, 0x01	; 1
     daa:	10 82       	st	Z, r1
     dac:	31 97       	sbiw	r30, 0x01	; 1
     dae:	10 82       	st	Z, r1
     db0:	31 97       	sbiw	r30, 0x01	; 1
     db2:	20 e8       	ldi	r18, 0x80	; 128
     db4:	20 83       	st	Z, r18
     db6:	31 97       	sbiw	r30, 0x01	; 1
     db8:	10 82       	st	Z, r1
     dba:	31 97       	sbiw	r30, 0x01	; 1
     dbc:	10 82       	st	Z, r1
     dbe:	31 97       	sbiw	r30, 0x01	; 1
     dc0:	10 82       	st	Z, r1
     dc2:	77 97       	sbiw	r30, 0x17	; 23
     dc4:	40 83       	st	Z, r20
     dc6:	31 97       	sbiw	r30, 0x01	; 1
     dc8:	50 83       	st	Z, r21
     dca:	86 97       	sbiw	r24, 0x26	; 38
     dcc:	08 95       	ret

00000dce <xPortStartScheduler>:
     dce:	8c e7       	ldi	r24, 0x7C	; 124
     dd0:	87 bd       	out	0x27, r24	; 39
     dd2:	82 e0       	ldi	r24, 0x02	; 2
     dd4:	84 bd       	out	0x24, r24	; 36
     dd6:	93 e0       	ldi	r25, 0x03	; 3
     dd8:	95 bd       	out	0x25, r25	; 37
     dda:	80 93 6e 00 	sts	0x006E, r24	; 0x80006e <__TEXT_REGION_LENGTH__+0x7c006e>
     dde:	a0 91 35 03 	lds	r26, 0x0335	; 0x800335 <pxCurrentTCB>
     de2:	b0 91 36 03 	lds	r27, 0x0336	; 0x800336 <pxCurrentTCB+0x1>
     de6:	cd 91       	ld	r28, X+
     de8:	cd bf       	out	0x3d, r28	; 61
     dea:	dd 91       	ld	r29, X+
     dec:	de bf       	out	0x3e, r29	; 62
     dee:	ff 91       	pop	r31
     df0:	ef 91       	pop	r30
     df2:	df 91       	pop	r29
     df4:	cf 91       	pop	r28
     df6:	bf 91       	pop	r27
     df8:	af 91       	pop	r26
     dfa:	9f 91       	pop	r25
     dfc:	8f 91       	pop	r24
     dfe:	7f 91       	pop	r23
     e00:	6f 91       	pop	r22
     e02:	5f 91       	pop	r21
     e04:	4f 91       	pop	r20
     e06:	3f 91       	pop	r19
     e08:	2f 91       	pop	r18
     e0a:	1f 91       	pop	r17
     e0c:	0f 91       	pop	r16
     e0e:	ff 90       	pop	r15
     e10:	ef 90       	pop	r14
     e12:	df 90       	pop	r13
     e14:	cf 90       	pop	r12
     e16:	bf 90       	pop	r11
     e18:	af 90       	pop	r10
     e1a:	9f 90       	pop	r9
     e1c:	8f 90       	pop	r8
     e1e:	7f 90       	pop	r7
     e20:	6f 90       	pop	r6
     e22:	5f 90       	pop	r5
     e24:	4f 90       	pop	r4
     e26:	3f 90       	pop	r3
     e28:	2f 90       	pop	r2
     e2a:	1f 90       	pop	r1
     e2c:	0f 90       	pop	r0
     e2e:	0c be       	out	0x3c, r0	; 60
     e30:	0f 90       	pop	r0
     e32:	0b be       	out	0x3b, r0	; 59
     e34:	0f 90       	pop	r0
     e36:	0f be       	out	0x3f, r0	; 63
     e38:	0f 90       	pop	r0
     e3a:	08 95       	ret
     e3c:	81 e0       	ldi	r24, 0x01	; 1
     e3e:	08 95       	ret

00000e40 <vPortYield>:
     e40:	0f 92       	push	r0
     e42:	0f b6       	in	r0, 0x3f	; 63
     e44:	f8 94       	cli
     e46:	0f 92       	push	r0
     e48:	0b b6       	in	r0, 0x3b	; 59
     e4a:	0f 92       	push	r0
     e4c:	0c b6       	in	r0, 0x3c	; 60
     e4e:	0f 92       	push	r0
     e50:	1f 92       	push	r1
     e52:	11 24       	eor	r1, r1
     e54:	2f 92       	push	r2
     e56:	3f 92       	push	r3
     e58:	4f 92       	push	r4
     e5a:	5f 92       	push	r5
     e5c:	6f 92       	push	r6
     e5e:	7f 92       	push	r7
     e60:	8f 92       	push	r8
     e62:	9f 92       	push	r9
     e64:	af 92       	push	r10
     e66:	bf 92       	push	r11
     e68:	cf 92       	push	r12
     e6a:	df 92       	push	r13
     e6c:	ef 92       	push	r14
     e6e:	ff 92       	push	r15
     e70:	0f 93       	push	r16
     e72:	1f 93       	push	r17
     e74:	2f 93       	push	r18
     e76:	3f 93       	push	r19
     e78:	4f 93       	push	r20
     e7a:	5f 93       	push	r21
     e7c:	6f 93       	push	r22
     e7e:	7f 93       	push	r23
     e80:	8f 93       	push	r24
     e82:	9f 93       	push	r25
     e84:	af 93       	push	r26
     e86:	bf 93       	push	r27
     e88:	cf 93       	push	r28
     e8a:	df 93       	push	r29
     e8c:	ef 93       	push	r30
     e8e:	ff 93       	push	r31
     e90:	a0 91 35 03 	lds	r26, 0x0335	; 0x800335 <pxCurrentTCB>
     e94:	b0 91 36 03 	lds	r27, 0x0336	; 0x800336 <pxCurrentTCB+0x1>
     e98:	0d b6       	in	r0, 0x3d	; 61
     e9a:	0d 92       	st	X+, r0
     e9c:	0e b6       	in	r0, 0x3e	; 62
     e9e:	0d 92       	st	X+, r0
     ea0:	b4 d6       	rcall	.+3432   	; 0x1c0a <vTaskSwitchContext>
     ea2:	a0 91 35 03 	lds	r26, 0x0335	; 0x800335 <pxCurrentTCB>
     ea6:	b0 91 36 03 	lds	r27, 0x0336	; 0x800336 <pxCurrentTCB+0x1>
     eaa:	cd 91       	ld	r28, X+
     eac:	cd bf       	out	0x3d, r28	; 61
     eae:	dd 91       	ld	r29, X+
     eb0:	de bf       	out	0x3e, r29	; 62
     eb2:	ff 91       	pop	r31
     eb4:	ef 91       	pop	r30
     eb6:	df 91       	pop	r29
     eb8:	cf 91       	pop	r28
     eba:	bf 91       	pop	r27
     ebc:	af 91       	pop	r26
     ebe:	9f 91       	pop	r25
     ec0:	8f 91       	pop	r24
     ec2:	7f 91       	pop	r23
     ec4:	6f 91       	pop	r22
     ec6:	5f 91       	pop	r21
     ec8:	4f 91       	pop	r20
     eca:	3f 91       	pop	r19
     ecc:	2f 91       	pop	r18
     ece:	1f 91       	pop	r17
     ed0:	0f 91       	pop	r16
     ed2:	ff 90       	pop	r15
     ed4:	ef 90       	pop	r14
     ed6:	df 90       	pop	r13
     ed8:	cf 90       	pop	r12
     eda:	bf 90       	pop	r11
     edc:	af 90       	pop	r10
     ede:	9f 90       	pop	r9
     ee0:	8f 90       	pop	r8
     ee2:	7f 90       	pop	r7
     ee4:	6f 90       	pop	r6
     ee6:	5f 90       	pop	r5
     ee8:	4f 90       	pop	r4
     eea:	3f 90       	pop	r3
     eec:	2f 90       	pop	r2
     eee:	1f 90       	pop	r1
     ef0:	0f 90       	pop	r0
     ef2:	0c be       	out	0x3c, r0	; 60
     ef4:	0f 90       	pop	r0
     ef6:	0b be       	out	0x3b, r0	; 59
     ef8:	0f 90       	pop	r0
     efa:	0f be       	out	0x3f, r0	; 63
     efc:	0f 90       	pop	r0
     efe:	08 95       	ret

00000f00 <vPortYieldFromTick>:
     f00:	0f 92       	push	r0
     f02:	0f b6       	in	r0, 0x3f	; 63
     f04:	f8 94       	cli
     f06:	0f 92       	push	r0
     f08:	0b b6       	in	r0, 0x3b	; 59
     f0a:	0f 92       	push	r0
     f0c:	0c b6       	in	r0, 0x3c	; 60
     f0e:	0f 92       	push	r0
     f10:	1f 92       	push	r1
     f12:	11 24       	eor	r1, r1
     f14:	2f 92       	push	r2
     f16:	3f 92       	push	r3
     f18:	4f 92       	push	r4
     f1a:	5f 92       	push	r5
     f1c:	6f 92       	push	r6
     f1e:	7f 92       	push	r7
     f20:	8f 92       	push	r8
     f22:	9f 92       	push	r9
     f24:	af 92       	push	r10
     f26:	bf 92       	push	r11
     f28:	cf 92       	push	r12
     f2a:	df 92       	push	r13
     f2c:	ef 92       	push	r14
     f2e:	ff 92       	push	r15
     f30:	0f 93       	push	r16
     f32:	1f 93       	push	r17
     f34:	2f 93       	push	r18
     f36:	3f 93       	push	r19
     f38:	4f 93       	push	r20
     f3a:	5f 93       	push	r21
     f3c:	6f 93       	push	r22
     f3e:	7f 93       	push	r23
     f40:	8f 93       	push	r24
     f42:	9f 93       	push	r25
     f44:	af 93       	push	r26
     f46:	bf 93       	push	r27
     f48:	cf 93       	push	r28
     f4a:	df 93       	push	r29
     f4c:	ef 93       	push	r30
     f4e:	ff 93       	push	r31
     f50:	a0 91 35 03 	lds	r26, 0x0335	; 0x800335 <pxCurrentTCB>
     f54:	b0 91 36 03 	lds	r27, 0x0336	; 0x800336 <pxCurrentTCB+0x1>
     f58:	0d b6       	in	r0, 0x3d	; 61
     f5a:	0d 92       	st	X+, r0
     f5c:	0e b6       	in	r0, 0x3e	; 62
     f5e:	0d 92       	st	X+, r0
     f60:	29 d5       	rcall	.+2642   	; 0x19b4 <xTaskIncrementTick>
     f62:	81 11       	cpse	r24, r1
     f64:	52 d6       	rcall	.+3236   	; 0x1c0a <vTaskSwitchContext>
     f66:	a0 91 35 03 	lds	r26, 0x0335	; 0x800335 <pxCurrentTCB>
     f6a:	b0 91 36 03 	lds	r27, 0x0336	; 0x800336 <pxCurrentTCB+0x1>
     f6e:	cd 91       	ld	r28, X+
     f70:	cd bf       	out	0x3d, r28	; 61
     f72:	dd 91       	ld	r29, X+
     f74:	de bf       	out	0x3e, r29	; 62
     f76:	ff 91       	pop	r31
     f78:	ef 91       	pop	r30
     f7a:	df 91       	pop	r29
     f7c:	cf 91       	pop	r28
     f7e:	bf 91       	pop	r27
     f80:	af 91       	pop	r26
     f82:	9f 91       	pop	r25
     f84:	8f 91       	pop	r24
     f86:	7f 91       	pop	r23
     f88:	6f 91       	pop	r22
     f8a:	5f 91       	pop	r21
     f8c:	4f 91       	pop	r20
     f8e:	3f 91       	pop	r19
     f90:	2f 91       	pop	r18
     f92:	1f 91       	pop	r17
     f94:	0f 91       	pop	r16
     f96:	ff 90       	pop	r15
     f98:	ef 90       	pop	r14
     f9a:	df 90       	pop	r13
     f9c:	cf 90       	pop	r12
     f9e:	bf 90       	pop	r11
     fa0:	af 90       	pop	r10
     fa2:	9f 90       	pop	r9
     fa4:	8f 90       	pop	r8
     fa6:	7f 90       	pop	r7
     fa8:	6f 90       	pop	r6
     faa:	5f 90       	pop	r5
     fac:	4f 90       	pop	r4
     fae:	3f 90       	pop	r3
     fb0:	2f 90       	pop	r2
     fb2:	1f 90       	pop	r1
     fb4:	0f 90       	pop	r0
     fb6:	0c be       	out	0x3c, r0	; 60
     fb8:	0f 90       	pop	r0
     fba:	0b be       	out	0x3b, r0	; 59
     fbc:	0f 90       	pop	r0
     fbe:	0f be       	out	0x3f, r0	; 63
     fc0:	0f 90       	pop	r0
     fc2:	08 95       	ret

00000fc4 <__vector_21>:
     fc4:	9d df       	rcall	.-198    	; 0xf00 <vPortYieldFromTick>
     fc6:	18 95       	reti

00000fc8 <prvIsQueueEmpty>:
     fc8:	0f b6       	in	r0, 0x3f	; 63
     fca:	f8 94       	cli
     fcc:	0f 92       	push	r0
     fce:	fc 01       	movw	r30, r24
     fd0:	92 8d       	ldd	r25, Z+26	; 0x1a
     fd2:	0f 90       	pop	r0
     fd4:	0f be       	out	0x3f, r0	; 63
     fd6:	81 e0       	ldi	r24, 0x01	; 1
     fd8:	91 11       	cpse	r25, r1
     fda:	80 e0       	ldi	r24, 0x00	; 0
     fdc:	08 95       	ret

00000fde <prvCopyDataToQueue>:
     fde:	0f 93       	push	r16
     fe0:	1f 93       	push	r17
     fe2:	cf 93       	push	r28
     fe4:	df 93       	push	r29
     fe6:	ec 01       	movw	r28, r24
     fe8:	04 2f       	mov	r16, r20
     fea:	1a 8d       	ldd	r17, Y+26	; 0x1a
     fec:	4c 8d       	ldd	r20, Y+28	; 0x1c
     fee:	41 11       	cpse	r20, r1
     ff0:	0a c0       	rjmp	.+20     	; 0x1006 <__EEPROM_REGION_LENGTH__+0x6>
     ff2:	88 81       	ld	r24, Y
     ff4:	99 81       	ldd	r25, Y+1	; 0x01
     ff6:	89 2b       	or	r24, r25
     ff8:	e1 f5       	brne	.+120    	; 0x1072 <__EEPROM_REGION_LENGTH__+0x72>
     ffa:	8c 81       	ldd	r24, Y+4	; 0x04
     ffc:	9d 81       	ldd	r25, Y+5	; 0x05
     ffe:	8c d7       	rcall	.+3864   	; 0x1f18 <xTaskPriorityDisinherit>
    1000:	1d 82       	std	Y+5, r1	; 0x05
    1002:	1c 82       	std	Y+4, r1	; 0x04
    1004:	37 c0       	rjmp	.+110    	; 0x1074 <__EEPROM_REGION_LENGTH__+0x74>
    1006:	50 e0       	ldi	r21, 0x00	; 0
    1008:	01 11       	cpse	r16, r1
    100a:	15 c0       	rjmp	.+42     	; 0x1036 <__EEPROM_REGION_LENGTH__+0x36>
    100c:	8a 81       	ldd	r24, Y+2	; 0x02
    100e:	9b 81       	ldd	r25, Y+3	; 0x03
    1010:	0e 94 bb 17 	call	0x2f76	; 0x2f76 <memcpy>
    1014:	2c 8d       	ldd	r18, Y+28	; 0x1c
    1016:	8a 81       	ldd	r24, Y+2	; 0x02
    1018:	9b 81       	ldd	r25, Y+3	; 0x03
    101a:	82 0f       	add	r24, r18
    101c:	91 1d       	adc	r25, r1
    101e:	9b 83       	std	Y+3, r25	; 0x03
    1020:	8a 83       	std	Y+2, r24	; 0x02
    1022:	2c 81       	ldd	r18, Y+4	; 0x04
    1024:	3d 81       	ldd	r19, Y+5	; 0x05
    1026:	82 17       	cp	r24, r18
    1028:	93 07       	cpc	r25, r19
    102a:	18 f1       	brcs	.+70     	; 0x1072 <__EEPROM_REGION_LENGTH__+0x72>
    102c:	88 81       	ld	r24, Y
    102e:	99 81       	ldd	r25, Y+1	; 0x01
    1030:	9b 83       	std	Y+3, r25	; 0x03
    1032:	8a 83       	std	Y+2, r24	; 0x02
    1034:	1e c0       	rjmp	.+60     	; 0x1072 <__EEPROM_REGION_LENGTH__+0x72>
    1036:	8e 81       	ldd	r24, Y+6	; 0x06
    1038:	9f 81       	ldd	r25, Y+7	; 0x07
    103a:	0e 94 bb 17 	call	0x2f76	; 0x2f76 <memcpy>
    103e:	8c 8d       	ldd	r24, Y+28	; 0x1c
    1040:	90 e0       	ldi	r25, 0x00	; 0
    1042:	91 95       	neg	r25
    1044:	81 95       	neg	r24
    1046:	91 09       	sbc	r25, r1
    1048:	2e 81       	ldd	r18, Y+6	; 0x06
    104a:	3f 81       	ldd	r19, Y+7	; 0x07
    104c:	28 0f       	add	r18, r24
    104e:	39 1f       	adc	r19, r25
    1050:	3f 83       	std	Y+7, r19	; 0x07
    1052:	2e 83       	std	Y+6, r18	; 0x06
    1054:	48 81       	ld	r20, Y
    1056:	59 81       	ldd	r21, Y+1	; 0x01
    1058:	24 17       	cp	r18, r20
    105a:	35 07       	cpc	r19, r21
    105c:	30 f4       	brcc	.+12     	; 0x106a <__EEPROM_REGION_LENGTH__+0x6a>
    105e:	2c 81       	ldd	r18, Y+4	; 0x04
    1060:	3d 81       	ldd	r19, Y+5	; 0x05
    1062:	82 0f       	add	r24, r18
    1064:	93 1f       	adc	r25, r19
    1066:	9f 83       	std	Y+7, r25	; 0x07
    1068:	8e 83       	std	Y+6, r24	; 0x06
    106a:	02 30       	cpi	r16, 0x02	; 2
    106c:	11 f4       	brne	.+4      	; 0x1072 <__EEPROM_REGION_LENGTH__+0x72>
    106e:	11 11       	cpse	r17, r1
    1070:	11 50       	subi	r17, 0x01	; 1
    1072:	80 e0       	ldi	r24, 0x00	; 0
    1074:	1f 5f       	subi	r17, 0xFF	; 255
    1076:	1a 8f       	std	Y+26, r17	; 0x1a
    1078:	df 91       	pop	r29
    107a:	cf 91       	pop	r28
    107c:	1f 91       	pop	r17
    107e:	0f 91       	pop	r16
    1080:	08 95       	ret

00001082 <prvNotifyQueueSetContainer>:
    1082:	ef 92       	push	r14
    1084:	ff 92       	push	r15
    1086:	0f 93       	push	r16
    1088:	1f 93       	push	r17
    108a:	cf 93       	push	r28
    108c:	df 93       	push	r29
    108e:	1f 92       	push	r1
    1090:	1f 92       	push	r1
    1092:	cd b7       	in	r28, 0x3d	; 61
    1094:	de b7       	in	r29, 0x3e	; 62
    1096:	9a 83       	std	Y+2, r25	; 0x02
    1098:	89 83       	std	Y+1, r24	; 0x01
    109a:	fc 01       	movw	r30, r24
    109c:	07 8d       	ldd	r16, Z+31	; 0x1f
    109e:	10 a1       	ldd	r17, Z+32	; 0x20
    10a0:	f8 01       	movw	r30, r16
    10a2:	92 8d       	ldd	r25, Z+26	; 0x1a
    10a4:	83 8d       	ldd	r24, Z+27	; 0x1b
    10a6:	98 17       	cp	r25, r24
    10a8:	d8 f4       	brcc	.+54     	; 0x10e0 <prvNotifyQueueSetContainer+0x5e>
    10aa:	f6 8c       	ldd	r15, Z+30	; 0x1e
    10ac:	40 e0       	ldi	r20, 0x00	; 0
    10ae:	be 01       	movw	r22, r28
    10b0:	6f 5f       	subi	r22, 0xFF	; 255
    10b2:	7f 4f       	sbci	r23, 0xFF	; 255
    10b4:	c8 01       	movw	r24, r16
    10b6:	93 df       	rcall	.-218    	; 0xfde <prvCopyDataToQueue>
    10b8:	e8 2e       	mov	r14, r24
    10ba:	ff ef       	ldi	r31, 0xFF	; 255
    10bc:	ff 12       	cpse	r15, r31
    10be:	0c c0       	rjmp	.+24     	; 0x10d8 <prvNotifyQueueSetContainer+0x56>
    10c0:	f8 01       	movw	r30, r16
    10c2:	81 89       	ldd	r24, Z+17	; 0x11
    10c4:	88 23       	and	r24, r24
    10c6:	69 f0       	breq	.+26     	; 0x10e2 <prvNotifyQueueSetContainer+0x60>
    10c8:	c8 01       	movw	r24, r16
    10ca:	41 96       	adiw	r24, 0x11	; 17
    10cc:	42 d6       	rcall	.+3204   	; 0x1d52 <xTaskRemoveFromEventList>
    10ce:	88 23       	and	r24, r24
    10d0:	41 f0       	breq	.+16     	; 0x10e2 <prvNotifyQueueSetContainer+0x60>
    10d2:	ee 24       	eor	r14, r14
    10d4:	e3 94       	inc	r14
    10d6:	05 c0       	rjmp	.+10     	; 0x10e2 <prvNotifyQueueSetContainer+0x60>
    10d8:	f3 94       	inc	r15
    10da:	f8 01       	movw	r30, r16
    10dc:	f6 8e       	std	Z+30, r15	; 0x1e
    10de:	01 c0       	rjmp	.+2      	; 0x10e2 <prvNotifyQueueSetContainer+0x60>
    10e0:	e1 2c       	mov	r14, r1
    10e2:	8e 2d       	mov	r24, r14
    10e4:	0f 90       	pop	r0
    10e6:	0f 90       	pop	r0
    10e8:	df 91       	pop	r29
    10ea:	cf 91       	pop	r28
    10ec:	1f 91       	pop	r17
    10ee:	0f 91       	pop	r16
    10f0:	ff 90       	pop	r15
    10f2:	ef 90       	pop	r14
    10f4:	08 95       	ret

000010f6 <prvUnlockQueue>:
    10f6:	ef 92       	push	r14
    10f8:	ff 92       	push	r15
    10fa:	1f 93       	push	r17
    10fc:	cf 93       	push	r28
    10fe:	df 93       	push	r29
    1100:	ec 01       	movw	r28, r24
    1102:	0f b6       	in	r0, 0x3f	; 63
    1104:	f8 94       	cli
    1106:	0f 92       	push	r0
    1108:	1e 8d       	ldd	r17, Y+30	; 0x1e
    110a:	7c 01       	movw	r14, r24
    110c:	81 e1       	ldi	r24, 0x11	; 17
    110e:	e8 0e       	add	r14, r24
    1110:	f1 1c       	adc	r15, r1
    1112:	11 16       	cp	r1, r17
    1114:	94 f4       	brge	.+36     	; 0x113a <prvUnlockQueue+0x44>
    1116:	8f 8d       	ldd	r24, Y+31	; 0x1f
    1118:	98 a1       	ldd	r25, Y+32	; 0x20
    111a:	89 2b       	or	r24, r25
    111c:	31 f0       	breq	.+12     	; 0x112a <prvUnlockQueue+0x34>
    111e:	ce 01       	movw	r24, r28
    1120:	b0 df       	rcall	.-160    	; 0x1082 <prvNotifyQueueSetContainer>
    1122:	88 23       	and	r24, r24
    1124:	41 f0       	breq	.+16     	; 0x1136 <prvUnlockQueue+0x40>
    1126:	91 d6       	rcall	.+3362   	; 0x1e4a <vTaskMissedYield>
    1128:	06 c0       	rjmp	.+12     	; 0x1136 <prvUnlockQueue+0x40>
    112a:	89 89       	ldd	r24, Y+17	; 0x11
    112c:	88 23       	and	r24, r24
    112e:	29 f0       	breq	.+10     	; 0x113a <prvUnlockQueue+0x44>
    1130:	c7 01       	movw	r24, r14
    1132:	0f d6       	rcall	.+3102   	; 0x1d52 <xTaskRemoveFromEventList>
    1134:	f6 cf       	rjmp	.-20     	; 0x1122 <prvUnlockQueue+0x2c>
    1136:	11 50       	subi	r17, 0x01	; 1
    1138:	ec cf       	rjmp	.-40     	; 0x1112 <prvUnlockQueue+0x1c>
    113a:	8f ef       	ldi	r24, 0xFF	; 255
    113c:	8e 8f       	std	Y+30, r24	; 0x1e
    113e:	0f 90       	pop	r0
    1140:	0f be       	out	0x3f, r0	; 63
    1142:	0f b6       	in	r0, 0x3f	; 63
    1144:	f8 94       	cli
    1146:	0f 92       	push	r0
    1148:	1d 8d       	ldd	r17, Y+29	; 0x1d
    114a:	7e 01       	movw	r14, r28
    114c:	88 e0       	ldi	r24, 0x08	; 8
    114e:	e8 0e       	add	r14, r24
    1150:	f1 1c       	adc	r15, r1
    1152:	11 16       	cp	r1, r17
    1154:	4c f4       	brge	.+18     	; 0x1168 <prvUnlockQueue+0x72>
    1156:	88 85       	ldd	r24, Y+8	; 0x08
    1158:	88 23       	and	r24, r24
    115a:	31 f0       	breq	.+12     	; 0x1168 <prvUnlockQueue+0x72>
    115c:	c7 01       	movw	r24, r14
    115e:	f9 d5       	rcall	.+3058   	; 0x1d52 <xTaskRemoveFromEventList>
    1160:	81 11       	cpse	r24, r1
    1162:	73 d6       	rcall	.+3302   	; 0x1e4a <vTaskMissedYield>
    1164:	11 50       	subi	r17, 0x01	; 1
    1166:	f5 cf       	rjmp	.-22     	; 0x1152 <prvUnlockQueue+0x5c>
    1168:	8f ef       	ldi	r24, 0xFF	; 255
    116a:	8d 8f       	std	Y+29, r24	; 0x1d
    116c:	0f 90       	pop	r0
    116e:	0f be       	out	0x3f, r0	; 63
    1170:	df 91       	pop	r29
    1172:	cf 91       	pop	r28
    1174:	1f 91       	pop	r17
    1176:	ff 90       	pop	r15
    1178:	ef 90       	pop	r14
    117a:	08 95       	ret

0000117c <xQueueGenericReset>:
    117c:	cf 93       	push	r28
    117e:	df 93       	push	r29
    1180:	ec 01       	movw	r28, r24
    1182:	0f b6       	in	r0, 0x3f	; 63
    1184:	f8 94       	cli
    1186:	0f 92       	push	r0
    1188:	48 81       	ld	r20, Y
    118a:	59 81       	ldd	r21, Y+1	; 0x01
    118c:	8b 8d       	ldd	r24, Y+27	; 0x1b
    118e:	7c 8d       	ldd	r23, Y+28	; 0x1c
    1190:	9a 01       	movw	r18, r20
    1192:	87 9f       	mul	r24, r23
    1194:	20 0d       	add	r18, r0
    1196:	31 1d       	adc	r19, r1
    1198:	11 24       	eor	r1, r1
    119a:	3d 83       	std	Y+5, r19	; 0x05
    119c:	2c 83       	std	Y+4, r18	; 0x04
    119e:	1a 8e       	std	Y+26, r1	; 0x1a
    11a0:	5b 83       	std	Y+3, r21	; 0x03
    11a2:	4a 83       	std	Y+2, r20	; 0x02
    11a4:	90 e0       	ldi	r25, 0x00	; 0
    11a6:	01 97       	sbiw	r24, 0x01	; 1
    11a8:	78 9f       	mul	r23, r24
    11aa:	90 01       	movw	r18, r0
    11ac:	79 9f       	mul	r23, r25
    11ae:	30 0d       	add	r19, r0
    11b0:	11 24       	eor	r1, r1
    11b2:	ca 01       	movw	r24, r20
    11b4:	82 0f       	add	r24, r18
    11b6:	93 1f       	adc	r25, r19
    11b8:	9f 83       	std	Y+7, r25	; 0x07
    11ba:	8e 83       	std	Y+6, r24	; 0x06
    11bc:	8f ef       	ldi	r24, 0xFF	; 255
    11be:	8d 8f       	std	Y+29, r24	; 0x1d
    11c0:	8e 8f       	std	Y+30, r24	; 0x1e
    11c2:	61 11       	cpse	r22, r1
    11c4:	0a c0       	rjmp	.+20     	; 0x11da <xQueueGenericReset+0x5e>
    11c6:	88 85       	ldd	r24, Y+8	; 0x08
    11c8:	88 23       	and	r24, r24
    11ca:	69 f0       	breq	.+26     	; 0x11e6 <xQueueGenericReset+0x6a>
    11cc:	ce 01       	movw	r24, r28
    11ce:	08 96       	adiw	r24, 0x08	; 8
    11d0:	c0 d5       	rcall	.+2944   	; 0x1d52 <xTaskRemoveFromEventList>
    11d2:	88 23       	and	r24, r24
    11d4:	41 f0       	breq	.+16     	; 0x11e6 <xQueueGenericReset+0x6a>
    11d6:	34 de       	rcall	.-920    	; 0xe40 <vPortYield>
    11d8:	06 c0       	rjmp	.+12     	; 0x11e6 <xQueueGenericReset+0x6a>
    11da:	ce 01       	movw	r24, r28
    11dc:	08 96       	adiw	r24, 0x08	; 8
    11de:	51 dd       	rcall	.-1374   	; 0xc82 <vListInitialise>
    11e0:	ce 01       	movw	r24, r28
    11e2:	41 96       	adiw	r24, 0x11	; 17
    11e4:	4e dd       	rcall	.-1380   	; 0xc82 <vListInitialise>
    11e6:	0f 90       	pop	r0
    11e8:	0f be       	out	0x3f, r0	; 63
    11ea:	81 e0       	ldi	r24, 0x01	; 1
    11ec:	df 91       	pop	r29
    11ee:	cf 91       	pop	r28
    11f0:	08 95       	ret

000011f2 <xQueueGenericCreate>:
    11f2:	0f 93       	push	r16
    11f4:	1f 93       	push	r17
    11f6:	cf 93       	push	r28
    11f8:	df 93       	push	r29
    11fa:	08 2f       	mov	r16, r24
    11fc:	16 2f       	mov	r17, r22
    11fe:	86 9f       	mul	r24, r22
    1200:	c0 01       	movw	r24, r0
    1202:	11 24       	eor	r1, r1
    1204:	81 96       	adiw	r24, 0x21	; 33
    1206:	21 dd       	rcall	.-1470   	; 0xc4a <pvPortMalloc>
    1208:	ec 01       	movw	r28, r24
    120a:	00 97       	sbiw	r24, 0x00	; 0
    120c:	79 f0       	breq	.+30     	; 0x122c <xQueueGenericCreate+0x3a>
    120e:	11 11       	cpse	r17, r1
    1210:	03 c0       	rjmp	.+6      	; 0x1218 <xQueueGenericCreate+0x26>
    1212:	99 83       	std	Y+1, r25	; 0x01
    1214:	88 83       	st	Y, r24
    1216:	03 c0       	rjmp	.+6      	; 0x121e <xQueueGenericCreate+0x2c>
    1218:	81 96       	adiw	r24, 0x21	; 33
    121a:	99 83       	std	Y+1, r25	; 0x01
    121c:	88 83       	st	Y, r24
    121e:	0b 8f       	std	Y+27, r16	; 0x1b
    1220:	1c 8f       	std	Y+28, r17	; 0x1c
    1222:	61 e0       	ldi	r22, 0x01	; 1
    1224:	ce 01       	movw	r24, r28
    1226:	aa df       	rcall	.-172    	; 0x117c <xQueueGenericReset>
    1228:	18 a2       	std	Y+32, r1	; 0x20
    122a:	1f 8e       	std	Y+31, r1	; 0x1f
    122c:	ce 01       	movw	r24, r28
    122e:	df 91       	pop	r29
    1230:	cf 91       	pop	r28
    1232:	1f 91       	pop	r17
    1234:	0f 91       	pop	r16
    1236:	08 95       	ret

00001238 <xQueueGenericSend>:
    1238:	af 92       	push	r10
    123a:	bf 92       	push	r11
    123c:	cf 92       	push	r12
    123e:	df 92       	push	r13
    1240:	ff 92       	push	r15
    1242:	0f 93       	push	r16
    1244:	1f 93       	push	r17
    1246:	cf 93       	push	r28
    1248:	df 93       	push	r29
    124a:	00 d0       	rcall	.+0      	; 0x124c <xQueueGenericSend+0x14>
    124c:	1f 92       	push	r1
    124e:	1f 92       	push	r1
    1250:	cd b7       	in	r28, 0x3d	; 61
    1252:	de b7       	in	r29, 0x3e	; 62
    1254:	8c 01       	movw	r16, r24
    1256:	6b 01       	movw	r12, r22
    1258:	5d 83       	std	Y+5, r21	; 0x05
    125a:	4c 83       	std	Y+4, r20	; 0x04
    125c:	f2 2e       	mov	r15, r18
    125e:	80 e0       	ldi	r24, 0x00	; 0
    1260:	58 01       	movw	r10, r16
    1262:	98 e0       	ldi	r25, 0x08	; 8
    1264:	a9 0e       	add	r10, r25
    1266:	b1 1c       	adc	r11, r1
    1268:	0f b6       	in	r0, 0x3f	; 63
    126a:	f8 94       	cli
    126c:	0f 92       	push	r0
    126e:	f8 01       	movw	r30, r16
    1270:	22 8d       	ldd	r18, Z+26	; 0x1a
    1272:	93 8d       	ldd	r25, Z+27	; 0x1b
    1274:	29 17       	cp	r18, r25
    1276:	18 f0       	brcs	.+6      	; 0x127e <xQueueGenericSend+0x46>
    1278:	f2 e0       	ldi	r31, 0x02	; 2
    127a:	ff 12       	cpse	r15, r31
    127c:	22 c0       	rjmp	.+68     	; 0x12c2 <xQueueGenericSend+0x8a>
    127e:	f8 01       	movw	r30, r16
    1280:	b2 8c       	ldd	r11, Z+26	; 0x1a
    1282:	4f 2d       	mov	r20, r15
    1284:	b6 01       	movw	r22, r12
    1286:	c8 01       	movw	r24, r16
    1288:	aa de       	rcall	.-684    	; 0xfde <prvCopyDataToQueue>
    128a:	f8 01       	movw	r30, r16
    128c:	27 8d       	ldd	r18, Z+31	; 0x1f
    128e:	30 a1       	ldd	r19, Z+32	; 0x20
    1290:	23 2b       	or	r18, r19
    1292:	59 f0       	breq	.+22     	; 0x12aa <xQueueGenericSend+0x72>
    1294:	f2 e0       	ldi	r31, 0x02	; 2
    1296:	ff 12       	cpse	r15, r31
    1298:	02 c0       	rjmp	.+4      	; 0x129e <xQueueGenericSend+0x66>
    129a:	b1 10       	cpse	r11, r1
    129c:	0e c0       	rjmp	.+28     	; 0x12ba <xQueueGenericSend+0x82>
    129e:	c8 01       	movw	r24, r16
    12a0:	f0 de       	rcall	.-544    	; 0x1082 <prvNotifyQueueSetContainer>
    12a2:	88 23       	and	r24, r24
    12a4:	51 f0       	breq	.+20     	; 0x12ba <xQueueGenericSend+0x82>
    12a6:	cc dd       	rcall	.-1128   	; 0xe40 <vPortYield>
    12a8:	08 c0       	rjmp	.+16     	; 0x12ba <xQueueGenericSend+0x82>
    12aa:	f8 01       	movw	r30, r16
    12ac:	91 89       	ldd	r25, Z+17	; 0x11
    12ae:	99 23       	and	r25, r25
    12b0:	c1 f3       	breq	.-16     	; 0x12a2 <xQueueGenericSend+0x6a>
    12b2:	c8 01       	movw	r24, r16
    12b4:	41 96       	adiw	r24, 0x11	; 17
    12b6:	4d d5       	rcall	.+2714   	; 0x1d52 <xTaskRemoveFromEventList>
    12b8:	f4 cf       	rjmp	.-24     	; 0x12a2 <xQueueGenericSend+0x6a>
    12ba:	0f 90       	pop	r0
    12bc:	0f be       	out	0x3f, r0	; 63
    12be:	81 e0       	ldi	r24, 0x01	; 1
    12c0:	45 c0       	rjmp	.+138    	; 0x134c <xQueueGenericSend+0x114>
    12c2:	2c 81       	ldd	r18, Y+4	; 0x04
    12c4:	3d 81       	ldd	r19, Y+5	; 0x05
    12c6:	23 2b       	or	r18, r19
    12c8:	19 f4       	brne	.+6      	; 0x12d0 <xQueueGenericSend+0x98>
    12ca:	0f 90       	pop	r0
    12cc:	0f be       	out	0x3f, r0	; 63
    12ce:	3d c0       	rjmp	.+122    	; 0x134a <xQueueGenericSend+0x112>
    12d0:	81 11       	cpse	r24, r1
    12d2:	03 c0       	rjmp	.+6      	; 0x12da <xQueueGenericSend+0xa2>
    12d4:	ce 01       	movw	r24, r28
    12d6:	01 96       	adiw	r24, 0x01	; 1
    12d8:	7c d5       	rcall	.+2808   	; 0x1dd2 <vTaskInternalSetTimeOutState>
    12da:	0f 90       	pop	r0
    12dc:	0f be       	out	0x3f, r0	; 63
    12de:	64 d3       	rcall	.+1736   	; 0x19a8 <vTaskSuspendAll>
    12e0:	0f b6       	in	r0, 0x3f	; 63
    12e2:	f8 94       	cli
    12e4:	0f 92       	push	r0
    12e6:	f8 01       	movw	r30, r16
    12e8:	85 8d       	ldd	r24, Z+29	; 0x1d
    12ea:	8f 3f       	cpi	r24, 0xFF	; 255
    12ec:	09 f4       	brne	.+2      	; 0x12f0 <xQueueGenericSend+0xb8>
    12ee:	15 8e       	std	Z+29, r1	; 0x1d
    12f0:	f8 01       	movw	r30, r16
    12f2:	86 8d       	ldd	r24, Z+30	; 0x1e
    12f4:	8f 3f       	cpi	r24, 0xFF	; 255
    12f6:	09 f4       	brne	.+2      	; 0x12fa <xQueueGenericSend+0xc2>
    12f8:	16 8e       	std	Z+30, r1	; 0x1e
    12fa:	0f 90       	pop	r0
    12fc:	0f be       	out	0x3f, r0	; 63
    12fe:	be 01       	movw	r22, r28
    1300:	6c 5f       	subi	r22, 0xFC	; 252
    1302:	7f 4f       	sbci	r23, 0xFF	; 255
    1304:	ce 01       	movw	r24, r28
    1306:	01 96       	adiw	r24, 0x01	; 1
    1308:	6f d5       	rcall	.+2782   	; 0x1de8 <xTaskCheckForTimeOut>
    130a:	81 11       	cpse	r24, r1
    130c:	1b c0       	rjmp	.+54     	; 0x1344 <xQueueGenericSend+0x10c>
    130e:	0f b6       	in	r0, 0x3f	; 63
    1310:	f8 94       	cli
    1312:	0f 92       	push	r0
    1314:	f8 01       	movw	r30, r16
    1316:	92 8d       	ldd	r25, Z+26	; 0x1a
    1318:	83 8d       	ldd	r24, Z+27	; 0x1b
    131a:	0f 90       	pop	r0
    131c:	0f be       	out	0x3f, r0	; 63
    131e:	98 13       	cpse	r25, r24
    1320:	0d c0       	rjmp	.+26     	; 0x133c <xQueueGenericSend+0x104>
    1322:	6c 81       	ldd	r22, Y+4	; 0x04
    1324:	7d 81       	ldd	r23, Y+5	; 0x05
    1326:	c5 01       	movw	r24, r10
    1328:	04 d5       	rcall	.+2568   	; 0x1d32 <vTaskPlaceOnEventList>
    132a:	c8 01       	movw	r24, r16
    132c:	e4 de       	rcall	.-568    	; 0x10f6 <prvUnlockQueue>
    132e:	ef d3       	rcall	.+2014   	; 0x1b0e <xTaskResumeAll>
    1330:	88 23       	and	r24, r24
    1332:	11 f0       	breq	.+4      	; 0x1338 <xQueueGenericSend+0x100>
    1334:	81 e0       	ldi	r24, 0x01	; 1
    1336:	98 cf       	rjmp	.-208    	; 0x1268 <xQueueGenericSend+0x30>
    1338:	83 dd       	rcall	.-1274   	; 0xe40 <vPortYield>
    133a:	fc cf       	rjmp	.-8      	; 0x1334 <xQueueGenericSend+0xfc>
    133c:	c8 01       	movw	r24, r16
    133e:	db de       	rcall	.-586    	; 0x10f6 <prvUnlockQueue>
    1340:	e6 d3       	rcall	.+1996   	; 0x1b0e <xTaskResumeAll>
    1342:	f8 cf       	rjmp	.-16     	; 0x1334 <xQueueGenericSend+0xfc>
    1344:	c8 01       	movw	r24, r16
    1346:	d7 de       	rcall	.-594    	; 0x10f6 <prvUnlockQueue>
    1348:	e2 d3       	rcall	.+1988   	; 0x1b0e <xTaskResumeAll>
    134a:	80 e0       	ldi	r24, 0x00	; 0
    134c:	0f 90       	pop	r0
    134e:	0f 90       	pop	r0
    1350:	0f 90       	pop	r0
    1352:	0f 90       	pop	r0
    1354:	0f 90       	pop	r0
    1356:	df 91       	pop	r29
    1358:	cf 91       	pop	r28
    135a:	1f 91       	pop	r17
    135c:	0f 91       	pop	r16
    135e:	ff 90       	pop	r15
    1360:	df 90       	pop	r13
    1362:	cf 90       	pop	r12
    1364:	bf 90       	pop	r11
    1366:	af 90       	pop	r10
    1368:	08 95       	ret

0000136a <xQueueCreateMutex>:
    136a:	cf 93       	push	r28
    136c:	df 93       	push	r29
    136e:	48 2f       	mov	r20, r24
    1370:	60 e0       	ldi	r22, 0x00	; 0
    1372:	81 e0       	ldi	r24, 0x01	; 1
    1374:	3e df       	rcall	.-388    	; 0x11f2 <xQueueGenericCreate>
    1376:	ec 01       	movw	r28, r24
    1378:	00 97       	sbiw	r24, 0x00	; 0
    137a:	59 f0       	breq	.+22     	; 0x1392 <xQueueCreateMutex+0x28>
    137c:	1d 82       	std	Y+5, r1	; 0x05
    137e:	1c 82       	std	Y+4, r1	; 0x04
    1380:	19 82       	std	Y+1, r1	; 0x01
    1382:	18 82       	st	Y, r1
    1384:	1e 82       	std	Y+6, r1	; 0x06
    1386:	20 e0       	ldi	r18, 0x00	; 0
    1388:	40 e0       	ldi	r20, 0x00	; 0
    138a:	50 e0       	ldi	r21, 0x00	; 0
    138c:	60 e0       	ldi	r22, 0x00	; 0
    138e:	70 e0       	ldi	r23, 0x00	; 0
    1390:	53 df       	rcall	.-346    	; 0x1238 <xQueueGenericSend>
    1392:	ce 01       	movw	r24, r28
    1394:	df 91       	pop	r29
    1396:	cf 91       	pop	r28
    1398:	08 95       	ret

0000139a <xQueueSemaphoreTake>:
    139a:	cf 92       	push	r12
    139c:	df 92       	push	r13
    139e:	ff 92       	push	r15
    13a0:	0f 93       	push	r16
    13a2:	1f 93       	push	r17
    13a4:	cf 93       	push	r28
    13a6:	df 93       	push	r29
    13a8:	00 d0       	rcall	.+0      	; 0x13aa <xQueueSemaphoreTake+0x10>
    13aa:	1f 92       	push	r1
    13ac:	1f 92       	push	r1
    13ae:	cd b7       	in	r28, 0x3d	; 61
    13b0:	de b7       	in	r29, 0x3e	; 62
    13b2:	8c 01       	movw	r16, r24
    13b4:	7d 83       	std	Y+5, r23	; 0x05
    13b6:	6c 83       	std	Y+4, r22	; 0x04
    13b8:	f1 2c       	mov	r15, r1
    13ba:	90 e0       	ldi	r25, 0x00	; 0
    13bc:	68 01       	movw	r12, r16
    13be:	81 e1       	ldi	r24, 0x11	; 17
    13c0:	c8 0e       	add	r12, r24
    13c2:	d1 1c       	adc	r13, r1
    13c4:	0f b6       	in	r0, 0x3f	; 63
    13c6:	f8 94       	cli
    13c8:	0f 92       	push	r0
    13ca:	d8 01       	movw	r26, r16
    13cc:	5a 96       	adiw	r26, 0x1a	; 26
    13ce:	8c 91       	ld	r24, X
    13d0:	5a 97       	sbiw	r26, 0x1a	; 26
    13d2:	88 23       	and	r24, r24
    13d4:	d1 f0       	breq	.+52     	; 0x140a <xQueueSemaphoreTake+0x70>
    13d6:	81 50       	subi	r24, 0x01	; 1
    13d8:	5a 96       	adiw	r26, 0x1a	; 26
    13da:	8c 93       	st	X, r24
    13dc:	5a 97       	sbiw	r26, 0x1a	; 26
    13de:	8d 91       	ld	r24, X+
    13e0:	9c 91       	ld	r25, X
    13e2:	89 2b       	or	r24, r25
    13e4:	21 f4       	brne	.+8      	; 0x13ee <xQueueSemaphoreTake+0x54>
    13e6:	19 d6       	rcall	.+3122   	; 0x201a <pvTaskIncrementMutexHeldCount>
    13e8:	f8 01       	movw	r30, r16
    13ea:	95 83       	std	Z+5, r25	; 0x05
    13ec:	84 83       	std	Z+4, r24	; 0x04
    13ee:	d8 01       	movw	r26, r16
    13f0:	18 96       	adiw	r26, 0x08	; 8
    13f2:	8c 91       	ld	r24, X
    13f4:	88 23       	and	r24, r24
    13f6:	29 f0       	breq	.+10     	; 0x1402 <xQueueSemaphoreTake+0x68>
    13f8:	c8 01       	movw	r24, r16
    13fa:	08 96       	adiw	r24, 0x08	; 8
    13fc:	aa d4       	rcall	.+2388   	; 0x1d52 <xTaskRemoveFromEventList>
    13fe:	81 11       	cpse	r24, r1
    1400:	1f dd       	rcall	.-1474   	; 0xe40 <vPortYield>
    1402:	0f 90       	pop	r0
    1404:	0f be       	out	0x3f, r0	; 63
    1406:	81 e0       	ldi	r24, 0x01	; 1
    1408:	6b c0       	rjmp	.+214    	; 0x14e0 <xQueueSemaphoreTake+0x146>
    140a:	2c 81       	ldd	r18, Y+4	; 0x04
    140c:	3d 81       	ldd	r19, Y+5	; 0x05
    140e:	23 2b       	or	r18, r19
    1410:	09 f4       	brne	.+2      	; 0x1414 <xQueueSemaphoreTake+0x7a>
    1412:	63 c0       	rjmp	.+198    	; 0x14da <xQueueSemaphoreTake+0x140>
    1414:	91 11       	cpse	r25, r1
    1416:	03 c0       	rjmp	.+6      	; 0x141e <xQueueSemaphoreTake+0x84>
    1418:	ce 01       	movw	r24, r28
    141a:	01 96       	adiw	r24, 0x01	; 1
    141c:	da d4       	rcall	.+2484   	; 0x1dd2 <vTaskInternalSetTimeOutState>
    141e:	0f 90       	pop	r0
    1420:	0f be       	out	0x3f, r0	; 63
    1422:	c2 d2       	rcall	.+1412   	; 0x19a8 <vTaskSuspendAll>
    1424:	0f b6       	in	r0, 0x3f	; 63
    1426:	f8 94       	cli
    1428:	0f 92       	push	r0
    142a:	f8 01       	movw	r30, r16
    142c:	85 8d       	ldd	r24, Z+29	; 0x1d
    142e:	8f 3f       	cpi	r24, 0xFF	; 255
    1430:	09 f4       	brne	.+2      	; 0x1434 <xQueueSemaphoreTake+0x9a>
    1432:	15 8e       	std	Z+29, r1	; 0x1d
    1434:	d8 01       	movw	r26, r16
    1436:	5e 96       	adiw	r26, 0x1e	; 30
    1438:	8c 91       	ld	r24, X
    143a:	5e 97       	sbiw	r26, 0x1e	; 30
    143c:	8f 3f       	cpi	r24, 0xFF	; 255
    143e:	11 f4       	brne	.+4      	; 0x1444 <xQueueSemaphoreTake+0xaa>
    1440:	5e 96       	adiw	r26, 0x1e	; 30
    1442:	1c 92       	st	X, r1
    1444:	0f 90       	pop	r0
    1446:	0f be       	out	0x3f, r0	; 63
    1448:	be 01       	movw	r22, r28
    144a:	6c 5f       	subi	r22, 0xFC	; 252
    144c:	7f 4f       	sbci	r23, 0xFF	; 255
    144e:	ce 01       	movw	r24, r28
    1450:	01 96       	adiw	r24, 0x01	; 1
    1452:	ca d4       	rcall	.+2452   	; 0x1de8 <xTaskCheckForTimeOut>
    1454:	81 11       	cpse	r24, r1
    1456:	23 c0       	rjmp	.+70     	; 0x149e <xQueueSemaphoreTake+0x104>
    1458:	c8 01       	movw	r24, r16
    145a:	b6 dd       	rcall	.-1172   	; 0xfc8 <prvIsQueueEmpty>
    145c:	88 23       	and	r24, r24
    145e:	d9 f0       	breq	.+54     	; 0x1496 <xQueueSemaphoreTake+0xfc>
    1460:	f8 01       	movw	r30, r16
    1462:	80 81       	ld	r24, Z
    1464:	91 81       	ldd	r25, Z+1	; 0x01
    1466:	89 2b       	or	r24, r25
    1468:	49 f4       	brne	.+18     	; 0x147c <xQueueSemaphoreTake+0xe2>
    146a:	0f b6       	in	r0, 0x3f	; 63
    146c:	f8 94       	cli
    146e:	0f 92       	push	r0
    1470:	84 81       	ldd	r24, Z+4	; 0x04
    1472:	95 81       	ldd	r25, Z+5	; 0x05
    1474:	ee d4       	rcall	.+2524   	; 0x1e52 <xTaskPriorityInherit>
    1476:	f8 2e       	mov	r15, r24
    1478:	0f 90       	pop	r0
    147a:	0f be       	out	0x3f, r0	; 63
    147c:	6c 81       	ldd	r22, Y+4	; 0x04
    147e:	7d 81       	ldd	r23, Y+5	; 0x05
    1480:	c6 01       	movw	r24, r12
    1482:	57 d4       	rcall	.+2222   	; 0x1d32 <vTaskPlaceOnEventList>
    1484:	c8 01       	movw	r24, r16
    1486:	37 de       	rcall	.-914    	; 0x10f6 <prvUnlockQueue>
    1488:	42 d3       	rcall	.+1668   	; 0x1b0e <xTaskResumeAll>
    148a:	88 23       	and	r24, r24
    148c:	11 f0       	breq	.+4      	; 0x1492 <xQueueSemaphoreTake+0xf8>
    148e:	91 e0       	ldi	r25, 0x01	; 1
    1490:	99 cf       	rjmp	.-206    	; 0x13c4 <xQueueSemaphoreTake+0x2a>
    1492:	d6 dc       	rcall	.-1620   	; 0xe40 <vPortYield>
    1494:	fc cf       	rjmp	.-8      	; 0x148e <xQueueSemaphoreTake+0xf4>
    1496:	c8 01       	movw	r24, r16
    1498:	2e de       	rcall	.-932    	; 0x10f6 <prvUnlockQueue>
    149a:	39 d3       	rcall	.+1650   	; 0x1b0e <xTaskResumeAll>
    149c:	f8 cf       	rjmp	.-16     	; 0x148e <xQueueSemaphoreTake+0xf4>
    149e:	c8 01       	movw	r24, r16
    14a0:	2a de       	rcall	.-940    	; 0x10f6 <prvUnlockQueue>
    14a2:	35 d3       	rcall	.+1642   	; 0x1b0e <xTaskResumeAll>
    14a4:	c8 01       	movw	r24, r16
    14a6:	90 dd       	rcall	.-1248   	; 0xfc8 <prvIsQueueEmpty>
    14a8:	88 23       	and	r24, r24
    14aa:	89 f3       	breq	.-30     	; 0x148e <xQueueSemaphoreTake+0xf4>
    14ac:	ff 20       	and	r15, r15
    14ae:	b9 f0       	breq	.+46     	; 0x14de <xQueueSemaphoreTake+0x144>
    14b0:	0f b6       	in	r0, 0x3f	; 63
    14b2:	f8 94       	cli
    14b4:	0f 92       	push	r0
    14b6:	f8 01       	movw	r30, r16
    14b8:	81 89       	ldd	r24, Z+17	; 0x11
    14ba:	88 23       	and	r24, r24
    14bc:	39 f0       	breq	.+14     	; 0x14cc <xQueueSemaphoreTake+0x132>
    14be:	06 88       	ldd	r0, Z+22	; 0x16
    14c0:	f7 89       	ldd	r31, Z+23	; 0x17
    14c2:	e0 2d       	mov	r30, r0
    14c4:	80 81       	ld	r24, Z
    14c6:	64 e0       	ldi	r22, 0x04	; 4
    14c8:	68 1b       	sub	r22, r24
    14ca:	01 c0       	rjmp	.+2      	; 0x14ce <xQueueSemaphoreTake+0x134>
    14cc:	60 e0       	ldi	r22, 0x00	; 0
    14ce:	d8 01       	movw	r26, r16
    14d0:	14 96       	adiw	r26, 0x04	; 4
    14d2:	8d 91       	ld	r24, X+
    14d4:	9c 91       	ld	r25, X
    14d6:	15 97       	sbiw	r26, 0x05	; 5
    14d8:	59 d5       	rcall	.+2738   	; 0x1f8c <vTaskPriorityDisinheritAfterTimeout>
    14da:	0f 90       	pop	r0
    14dc:	0f be       	out	0x3f, r0	; 63
    14de:	80 e0       	ldi	r24, 0x00	; 0
    14e0:	0f 90       	pop	r0
    14e2:	0f 90       	pop	r0
    14e4:	0f 90       	pop	r0
    14e6:	0f 90       	pop	r0
    14e8:	0f 90       	pop	r0
    14ea:	df 91       	pop	r29
    14ec:	cf 91       	pop	r28
    14ee:	1f 91       	pop	r17
    14f0:	0f 91       	pop	r16
    14f2:	ff 90       	pop	r15
    14f4:	df 90       	pop	r13
    14f6:	cf 90       	pop	r12
    14f8:	08 95       	ret

000014fa <prvResetNextTaskUnblockTime>:
    14fa:	e0 91 fd 02 	lds	r30, 0x02FD	; 0x8002fd <pxDelayedTaskList>
    14fe:	f0 91 fe 02 	lds	r31, 0x02FE	; 0x8002fe <pxDelayedTaskList+0x1>
    1502:	80 81       	ld	r24, Z
    1504:	81 11       	cpse	r24, r1
    1506:	03 c0       	rjmp	.+6      	; 0x150e <prvResetNextTaskUnblockTime+0x14>
    1508:	8f ef       	ldi	r24, 0xFF	; 255
    150a:	9f ef       	ldi	r25, 0xFF	; 255
    150c:	09 c0       	rjmp	.+18     	; 0x1520 <prvResetNextTaskUnblockTime+0x26>
    150e:	e0 91 fd 02 	lds	r30, 0x02FD	; 0x8002fd <pxDelayedTaskList>
    1512:	f0 91 fe 02 	lds	r31, 0x02FE	; 0x8002fe <pxDelayedTaskList+0x1>
    1516:	05 80       	ldd	r0, Z+5	; 0x05
    1518:	f6 81       	ldd	r31, Z+6	; 0x06
    151a:	e0 2d       	mov	r30, r0
    151c:	80 81       	ld	r24, Z
    151e:	91 81       	ldd	r25, Z+1	; 0x01
    1520:	90 93 d4 02 	sts	0x02D4, r25	; 0x8002d4 <xNextTaskUnblockTime+0x1>
    1524:	80 93 d3 02 	sts	0x02D3, r24	; 0x8002d3 <xNextTaskUnblockTime>
    1528:	08 95       	ret

0000152a <prvAddCurrentTaskToDelayedList>:
    152a:	ff 92       	push	r15
    152c:	0f 93       	push	r16
    152e:	1f 93       	push	r17
    1530:	cf 93       	push	r28
    1532:	df 93       	push	r29
    1534:	ec 01       	movw	r28, r24
    1536:	f6 2e       	mov	r15, r22
    1538:	00 91 dc 02 	lds	r16, 0x02DC	; 0x8002dc <xTickCount>
    153c:	10 91 dd 02 	lds	r17, 0x02DD	; 0x8002dd <xTickCount+0x1>
    1540:	80 91 35 03 	lds	r24, 0x0335	; 0x800335 <pxCurrentTCB>
    1544:	90 91 36 03 	lds	r25, 0x0336	; 0x800336 <pxCurrentTCB+0x1>
    1548:	02 96       	adiw	r24, 0x02	; 2
    154a:	06 dc       	rcall	.-2036   	; 0xd58 <uxListRemove>
    154c:	cf 3f       	cpi	r28, 0xFF	; 255
    154e:	8f ef       	ldi	r24, 0xFF	; 255
    1550:	d8 07       	cpc	r29, r24
    1552:	81 f4       	brne	.+32     	; 0x1574 <prvAddCurrentTaskToDelayedList+0x4a>
    1554:	ff 20       	and	r15, r15
    1556:	71 f0       	breq	.+28     	; 0x1574 <prvAddCurrentTaskToDelayedList+0x4a>
    1558:	60 91 35 03 	lds	r22, 0x0335	; 0x800335 <pxCurrentTCB>
    155c:	70 91 36 03 	lds	r23, 0x0336	; 0x800336 <pxCurrentTCB+0x1>
    1560:	6e 5f       	subi	r22, 0xFE	; 254
    1562:	7f 4f       	sbci	r23, 0xFF	; 255
    1564:	8f ed       	ldi	r24, 0xDF	; 223
    1566:	92 e0       	ldi	r25, 0x02	; 2
    1568:	df 91       	pop	r29
    156a:	cf 91       	pop	r28
    156c:	1f 91       	pop	r17
    156e:	0f 91       	pop	r16
    1570:	ff 90       	pop	r15
    1572:	99 cb       	rjmp	.-2254   	; 0xca6 <vListInsertEnd>
    1574:	c0 0f       	add	r28, r16
    1576:	d1 1f       	adc	r29, r17
    1578:	e0 91 35 03 	lds	r30, 0x0335	; 0x800335 <pxCurrentTCB>
    157c:	f0 91 36 03 	lds	r31, 0x0336	; 0x800336 <pxCurrentTCB+0x1>
    1580:	d3 83       	std	Z+3, r29	; 0x03
    1582:	c2 83       	std	Z+2, r28	; 0x02
    1584:	60 91 35 03 	lds	r22, 0x0335	; 0x800335 <pxCurrentTCB>
    1588:	70 91 36 03 	lds	r23, 0x0336	; 0x800336 <pxCurrentTCB+0x1>
    158c:	c0 17       	cp	r28, r16
    158e:	d1 07       	cpc	r29, r17
    1590:	60 f4       	brcc	.+24     	; 0x15aa <prvAddCurrentTaskToDelayedList+0x80>
    1592:	80 91 fb 02 	lds	r24, 0x02FB	; 0x8002fb <pxOverflowDelayedTaskList>
    1596:	90 91 fc 02 	lds	r25, 0x02FC	; 0x8002fc <pxOverflowDelayedTaskList+0x1>
    159a:	6e 5f       	subi	r22, 0xFE	; 254
    159c:	7f 4f       	sbci	r23, 0xFF	; 255
    159e:	df 91       	pop	r29
    15a0:	cf 91       	pop	r28
    15a2:	1f 91       	pop	r17
    15a4:	0f 91       	pop	r16
    15a6:	ff 90       	pop	r15
    15a8:	9f cb       	rjmp	.-2242   	; 0xce8 <vListInsert>
    15aa:	80 91 fd 02 	lds	r24, 0x02FD	; 0x8002fd <pxDelayedTaskList>
    15ae:	90 91 fe 02 	lds	r25, 0x02FE	; 0x8002fe <pxDelayedTaskList+0x1>
    15b2:	6e 5f       	subi	r22, 0xFE	; 254
    15b4:	7f 4f       	sbci	r23, 0xFF	; 255
    15b6:	98 db       	rcall	.-2256   	; 0xce8 <vListInsert>
    15b8:	80 91 d3 02 	lds	r24, 0x02D3	; 0x8002d3 <xNextTaskUnblockTime>
    15bc:	90 91 d4 02 	lds	r25, 0x02D4	; 0x8002d4 <xNextTaskUnblockTime+0x1>
    15c0:	c8 17       	cp	r28, r24
    15c2:	d9 07       	cpc	r29, r25
    15c4:	20 f4       	brcc	.+8      	; 0x15ce <prvAddCurrentTaskToDelayedList+0xa4>
    15c6:	d0 93 d4 02 	sts	0x02D4, r29	; 0x8002d4 <xNextTaskUnblockTime+0x1>
    15ca:	c0 93 d3 02 	sts	0x02D3, r28	; 0x8002d3 <xNextTaskUnblockTime>
    15ce:	df 91       	pop	r29
    15d0:	cf 91       	pop	r28
    15d2:	1f 91       	pop	r17
    15d4:	0f 91       	pop	r16
    15d6:	ff 90       	pop	r15
    15d8:	08 95       	ret

000015da <xTaskCreate>:
    15da:	4f 92       	push	r4
    15dc:	5f 92       	push	r5
    15de:	6f 92       	push	r6
    15e0:	7f 92       	push	r7
    15e2:	8f 92       	push	r8
    15e4:	9f 92       	push	r9
    15e6:	af 92       	push	r10
    15e8:	bf 92       	push	r11
    15ea:	cf 92       	push	r12
    15ec:	df 92       	push	r13
    15ee:	ef 92       	push	r14
    15f0:	ff 92       	push	r15
    15f2:	0f 93       	push	r16
    15f4:	cf 93       	push	r28
    15f6:	df 93       	push	r29
    15f8:	4c 01       	movw	r8, r24
    15fa:	6b 01       	movw	r12, r22
    15fc:	5a 01       	movw	r10, r20
    15fe:	29 01       	movw	r4, r18
    1600:	ca 01       	movw	r24, r20
    1602:	23 db       	rcall	.-2490   	; 0xc4a <pvPortMalloc>
    1604:	3c 01       	movw	r6, r24
    1606:	89 2b       	or	r24, r25
    1608:	09 f4       	brne	.+2      	; 0x160c <xTaskCreate+0x32>
    160a:	ca c0       	rjmp	.+404    	; 0x17a0 <xTaskCreate+0x1c6>
    160c:	88 e2       	ldi	r24, 0x28	; 40
    160e:	90 e0       	ldi	r25, 0x00	; 0
    1610:	1c db       	rcall	.-2504   	; 0xc4a <pvPortMalloc>
    1612:	ec 01       	movw	r28, r24
    1614:	00 97       	sbiw	r24, 0x00	; 0
    1616:	89 f0       	breq	.+34     	; 0x163a <xTaskCreate+0x60>
    1618:	78 8e       	std	Y+24, r7	; 0x18
    161a:	6f 8a       	std	Y+23, r6	; 0x17
    161c:	21 e0       	ldi	r18, 0x01	; 1
    161e:	a2 1a       	sub	r10, r18
    1620:	b1 08       	sbc	r11, r1
    1622:	6a 0c       	add	r6, r10
    1624:	7b 1c       	adc	r7, r11
    1626:	c1 14       	cp	r12, r1
    1628:	d1 04       	cpc	r13, r1
    162a:	c1 f0       	breq	.+48     	; 0x165c <xTaskCreate+0x82>
    162c:	bc 01       	movw	r22, r24
    162e:	67 5e       	subi	r22, 0xE7	; 231
    1630:	7f 4f       	sbci	r23, 0xFF	; 255
    1632:	f6 01       	movw	r30, r12
    1634:	c6 01       	movw	r24, r12
    1636:	08 96       	adiw	r24, 0x08	; 8
    1638:	06 c0       	rjmp	.+12     	; 0x1646 <xTaskCreate+0x6c>
    163a:	c3 01       	movw	r24, r6
    163c:	13 db       	rcall	.-2522   	; 0xc64 <vPortFree>
    163e:	b0 c0       	rjmp	.+352    	; 0x17a0 <xTaskCreate+0x1c6>
    1640:	e8 17       	cp	r30, r24
    1642:	f9 07       	cpc	r31, r25
    1644:	49 f0       	breq	.+18     	; 0x1658 <xTaskCreate+0x7e>
    1646:	9f 01       	movw	r18, r30
    1648:	41 91       	ld	r20, Z+
    164a:	db 01       	movw	r26, r22
    164c:	4d 93       	st	X+, r20
    164e:	bd 01       	movw	r22, r26
    1650:	d9 01       	movw	r26, r18
    1652:	2c 91       	ld	r18, X
    1654:	21 11       	cpse	r18, r1
    1656:	f4 cf       	rjmp	.-24     	; 0x1640 <xTaskCreate+0x66>
    1658:	18 a2       	std	Y+32, r1	; 0x20
    165a:	01 c0       	rjmp	.+2      	; 0x165e <xTaskCreate+0x84>
    165c:	19 8e       	std	Y+25, r1	; 0x19
    165e:	04 30       	cpi	r16, 0x04	; 4
    1660:	08 f0       	brcs	.+2      	; 0x1664 <xTaskCreate+0x8a>
    1662:	03 e0       	ldi	r16, 0x03	; 3
    1664:	0e 8b       	std	Y+22, r16	; 0x16
    1666:	09 a3       	std	Y+33, r16	; 0x21
    1668:	1a a2       	std	Y+34, r1	; 0x22
    166a:	6e 01       	movw	r12, r28
    166c:	b2 e0       	ldi	r27, 0x02	; 2
    166e:	cb 0e       	add	r12, r27
    1670:	d1 1c       	adc	r13, r1
    1672:	c6 01       	movw	r24, r12
    1674:	14 db       	rcall	.-2520   	; 0xc9e <vListInitialiseItem>
    1676:	ce 01       	movw	r24, r28
    1678:	0c 96       	adiw	r24, 0x0c	; 12
    167a:	11 db       	rcall	.-2526   	; 0xc9e <vListInitialiseItem>
    167c:	d9 87       	std	Y+9, r29	; 0x09
    167e:	c8 87       	std	Y+8, r28	; 0x08
    1680:	84 e0       	ldi	r24, 0x04	; 4
    1682:	90 e0       	ldi	r25, 0x00	; 0
    1684:	80 1b       	sub	r24, r16
    1686:	91 09       	sbc	r25, r1
    1688:	9d 87       	std	Y+13, r25	; 0x0d
    168a:	8c 87       	std	Y+12, r24	; 0x0c
    168c:	db 8b       	std	Y+19, r29	; 0x13
    168e:	ca 8b       	std	Y+18, r28	; 0x12
    1690:	84 e0       	ldi	r24, 0x04	; 4
    1692:	fe 01       	movw	r30, r28
    1694:	b3 96       	adiw	r30, 0x23	; 35
    1696:	df 01       	movw	r26, r30
    1698:	1d 92       	st	X+, r1
    169a:	8a 95       	dec	r24
    169c:	e9 f7       	brne	.-6      	; 0x1698 <xTaskCreate+0xbe>
    169e:	1f a2       	std	Y+39, r1	; 0x27
    16a0:	a2 01       	movw	r20, r4
    16a2:	b4 01       	movw	r22, r8
    16a4:	c3 01       	movw	r24, r6
    16a6:	7c db       	rcall	.-2312   	; 0xda0 <pxPortInitialiseStack>
    16a8:	99 83       	std	Y+1, r25	; 0x01
    16aa:	88 83       	st	Y, r24
    16ac:	e1 14       	cp	r14, r1
    16ae:	f1 04       	cpc	r15, r1
    16b0:	19 f0       	breq	.+6      	; 0x16b8 <xTaskCreate+0xde>
    16b2:	f7 01       	movw	r30, r14
    16b4:	d1 83       	std	Z+1, r29	; 0x01
    16b6:	c0 83       	st	Z, r28
    16b8:	0f b6       	in	r0, 0x3f	; 63
    16ba:	f8 94       	cli
    16bc:	0f 92       	push	r0
    16be:	80 91 de 02 	lds	r24, 0x02DE	; 0x8002de <uxCurrentNumberOfTasks>
    16c2:	8f 5f       	subi	r24, 0xFF	; 255
    16c4:	80 93 de 02 	sts	0x02DE, r24	; 0x8002de <uxCurrentNumberOfTasks>
    16c8:	80 91 35 03 	lds	r24, 0x0335	; 0x800335 <pxCurrentTCB>
    16cc:	90 91 36 03 	lds	r25, 0x0336	; 0x800336 <pxCurrentTCB+0x1>
    16d0:	89 2b       	or	r24, r25
    16d2:	89 f5       	brne	.+98     	; 0x1736 <xTaskCreate+0x15c>
    16d4:	d0 93 36 03 	sts	0x0336, r29	; 0x800336 <pxCurrentTCB+0x1>
    16d8:	c0 93 35 03 	sts	0x0335, r28	; 0x800335 <pxCurrentTCB>
    16dc:	80 91 de 02 	lds	r24, 0x02DE	; 0x8002de <uxCurrentNumberOfTasks>
    16e0:	81 30       	cpi	r24, 0x01	; 1
    16e2:	09 f0       	breq	.+2      	; 0x16e6 <xTaskCreate+0x10c>
    16e4:	38 c0       	rjmp	.+112    	; 0x1756 <xTaskCreate+0x17c>
    16e6:	81 e1       	ldi	r24, 0x11	; 17
    16e8:	93 e0       	ldi	r25, 0x03	; 3
    16ea:	cb da       	rcall	.-2666   	; 0xc82 <vListInitialise>
    16ec:	8a e1       	ldi	r24, 0x1A	; 26
    16ee:	93 e0       	ldi	r25, 0x03	; 3
    16f0:	c8 da       	rcall	.-2672   	; 0xc82 <vListInitialise>
    16f2:	83 e2       	ldi	r24, 0x23	; 35
    16f4:	93 e0       	ldi	r25, 0x03	; 3
    16f6:	c5 da       	rcall	.-2678   	; 0xc82 <vListInitialise>
    16f8:	8c e2       	ldi	r24, 0x2C	; 44
    16fa:	93 e0       	ldi	r25, 0x03	; 3
    16fc:	c2 da       	rcall	.-2684   	; 0xc82 <vListInitialise>
    16fe:	88 e0       	ldi	r24, 0x08	; 8
    1700:	93 e0       	ldi	r25, 0x03	; 3
    1702:	bf da       	rcall	.-2690   	; 0xc82 <vListInitialise>
    1704:	8f ef       	ldi	r24, 0xFF	; 255
    1706:	92 e0       	ldi	r25, 0x02	; 2
    1708:	bc da       	rcall	.-2696   	; 0xc82 <vListInitialise>
    170a:	82 ef       	ldi	r24, 0xF2	; 242
    170c:	92 e0       	ldi	r25, 0x02	; 2
    170e:	b9 da       	rcall	.-2702   	; 0xc82 <vListInitialise>
    1710:	89 ee       	ldi	r24, 0xE9	; 233
    1712:	92 e0       	ldi	r25, 0x02	; 2
    1714:	b6 da       	rcall	.-2708   	; 0xc82 <vListInitialise>
    1716:	8f ed       	ldi	r24, 0xDF	; 223
    1718:	92 e0       	ldi	r25, 0x02	; 2
    171a:	b3 da       	rcall	.-2714   	; 0xc82 <vListInitialise>
    171c:	88 e0       	ldi	r24, 0x08	; 8
    171e:	93 e0       	ldi	r25, 0x03	; 3
    1720:	90 93 fe 02 	sts	0x02FE, r25	; 0x8002fe <pxDelayedTaskList+0x1>
    1724:	80 93 fd 02 	sts	0x02FD, r24	; 0x8002fd <pxDelayedTaskList>
    1728:	8f ef       	ldi	r24, 0xFF	; 255
    172a:	92 e0       	ldi	r25, 0x02	; 2
    172c:	90 93 fc 02 	sts	0x02FC, r25	; 0x8002fc <pxOverflowDelayedTaskList+0x1>
    1730:	80 93 fb 02 	sts	0x02FB, r24	; 0x8002fb <pxOverflowDelayedTaskList>
    1734:	10 c0       	rjmp	.+32     	; 0x1756 <xTaskCreate+0x17c>
    1736:	80 91 da 02 	lds	r24, 0x02DA	; 0x8002da <xSchedulerRunning>
    173a:	81 11       	cpse	r24, r1
    173c:	0c c0       	rjmp	.+24     	; 0x1756 <xTaskCreate+0x17c>
    173e:	e0 91 35 03 	lds	r30, 0x0335	; 0x800335 <pxCurrentTCB>
    1742:	f0 91 36 03 	lds	r31, 0x0336	; 0x800336 <pxCurrentTCB+0x1>
    1746:	96 89       	ldd	r25, Z+22	; 0x16
    1748:	8e 89       	ldd	r24, Y+22	; 0x16
    174a:	89 17       	cp	r24, r25
    174c:	20 f0       	brcs	.+8      	; 0x1756 <xTaskCreate+0x17c>
    174e:	d0 93 36 03 	sts	0x0336, r29	; 0x800336 <pxCurrentTCB+0x1>
    1752:	c0 93 35 03 	sts	0x0335, r28	; 0x800335 <pxCurrentTCB>
    1756:	80 91 d5 02 	lds	r24, 0x02D5	; 0x8002d5 <uxTaskNumber>
    175a:	8f 5f       	subi	r24, 0xFF	; 255
    175c:	80 93 d5 02 	sts	0x02D5, r24	; 0x8002d5 <uxTaskNumber>
    1760:	8e 89       	ldd	r24, Y+22	; 0x16
    1762:	90 91 db 02 	lds	r25, 0x02DB	; 0x8002db <uxTopReadyPriority>
    1766:	98 17       	cp	r25, r24
    1768:	10 f4       	brcc	.+4      	; 0x176e <xTaskCreate+0x194>
    176a:	80 93 db 02 	sts	0x02DB, r24	; 0x8002db <uxTopReadyPriority>
    176e:	f9 e0       	ldi	r31, 0x09	; 9
    1770:	8f 9f       	mul	r24, r31
    1772:	c0 01       	movw	r24, r0
    1774:	11 24       	eor	r1, r1
    1776:	b6 01       	movw	r22, r12
    1778:	8f 5e       	subi	r24, 0xEF	; 239
    177a:	9c 4f       	sbci	r25, 0xFC	; 252
    177c:	94 da       	rcall	.-2776   	; 0xca6 <vListInsertEnd>
    177e:	0f 90       	pop	r0
    1780:	0f be       	out	0x3f, r0	; 63
    1782:	80 91 da 02 	lds	r24, 0x02DA	; 0x8002da <xSchedulerRunning>
    1786:	88 23       	and	r24, r24
    1788:	49 f0       	breq	.+18     	; 0x179c <xTaskCreate+0x1c2>
    178a:	e0 91 35 03 	lds	r30, 0x0335	; 0x800335 <pxCurrentTCB>
    178e:	f0 91 36 03 	lds	r31, 0x0336	; 0x800336 <pxCurrentTCB+0x1>
    1792:	96 89       	ldd	r25, Z+22	; 0x16
    1794:	8e 89       	ldd	r24, Y+22	; 0x16
    1796:	98 17       	cp	r25, r24
    1798:	08 f4       	brcc	.+2      	; 0x179c <xTaskCreate+0x1c2>
    179a:	52 db       	rcall	.-2396   	; 0xe40 <vPortYield>
    179c:	81 e0       	ldi	r24, 0x01	; 1
    179e:	01 c0       	rjmp	.+2      	; 0x17a2 <xTaskCreate+0x1c8>
    17a0:	8f ef       	ldi	r24, 0xFF	; 255
    17a2:	df 91       	pop	r29
    17a4:	cf 91       	pop	r28
    17a6:	0f 91       	pop	r16
    17a8:	ff 90       	pop	r15
    17aa:	ef 90       	pop	r14
    17ac:	df 90       	pop	r13
    17ae:	cf 90       	pop	r12
    17b0:	bf 90       	pop	r11
    17b2:	af 90       	pop	r10
    17b4:	9f 90       	pop	r9
    17b6:	8f 90       	pop	r8
    17b8:	7f 90       	pop	r7
    17ba:	6f 90       	pop	r6
    17bc:	5f 90       	pop	r5
    17be:	4f 90       	pop	r4
    17c0:	08 95       	ret

000017c2 <vTaskDelete>:
    17c2:	0f 93       	push	r16
    17c4:	1f 93       	push	r17
    17c6:	cf 93       	push	r28
    17c8:	df 93       	push	r29
    17ca:	ec 01       	movw	r28, r24
    17cc:	0f b6       	in	r0, 0x3f	; 63
    17ce:	f8 94       	cli
    17d0:	0f 92       	push	r0
    17d2:	89 2b       	or	r24, r25
    17d4:	21 f4       	brne	.+8      	; 0x17de <vTaskDelete+0x1c>
    17d6:	c0 91 35 03 	lds	r28, 0x0335	; 0x800335 <pxCurrentTCB>
    17da:	d0 91 36 03 	lds	r29, 0x0336	; 0x800336 <pxCurrentTCB+0x1>
    17de:	8e 01       	movw	r16, r28
    17e0:	0e 5f       	subi	r16, 0xFE	; 254
    17e2:	1f 4f       	sbci	r17, 0xFF	; 255
    17e4:	c8 01       	movw	r24, r16
    17e6:	b8 da       	rcall	.-2704   	; 0xd58 <uxListRemove>
    17e8:	8c 89       	ldd	r24, Y+20	; 0x14
    17ea:	9d 89       	ldd	r25, Y+21	; 0x15
    17ec:	89 2b       	or	r24, r25
    17ee:	19 f0       	breq	.+6      	; 0x17f6 <vTaskDelete+0x34>
    17f0:	ce 01       	movw	r24, r28
    17f2:	0c 96       	adiw	r24, 0x0c	; 12
    17f4:	b1 da       	rcall	.-2718   	; 0xd58 <uxListRemove>
    17f6:	80 91 d5 02 	lds	r24, 0x02D5	; 0x8002d5 <uxTaskNumber>
    17fa:	8f 5f       	subi	r24, 0xFF	; 255
    17fc:	80 93 d5 02 	sts	0x02D5, r24	; 0x8002d5 <uxTaskNumber>
    1800:	80 91 35 03 	lds	r24, 0x0335	; 0x800335 <pxCurrentTCB>
    1804:	90 91 36 03 	lds	r25, 0x0336	; 0x800336 <pxCurrentTCB+0x1>
    1808:	c8 17       	cp	r28, r24
    180a:	d9 07       	cpc	r29, r25
    180c:	51 f4       	brne	.+20     	; 0x1822 <vTaskDelete+0x60>
    180e:	b8 01       	movw	r22, r16
    1810:	89 ee       	ldi	r24, 0xE9	; 233
    1812:	92 e0       	ldi	r25, 0x02	; 2
    1814:	48 da       	rcall	.-2928   	; 0xca6 <vListInsertEnd>
    1816:	80 91 e8 02 	lds	r24, 0x02E8	; 0x8002e8 <uxDeletedTasksWaitingCleanUp>
    181a:	8f 5f       	subi	r24, 0xFF	; 255
    181c:	80 93 e8 02 	sts	0x02E8, r24	; 0x8002e8 <uxDeletedTasksWaitingCleanUp>
    1820:	0b c0       	rjmp	.+22     	; 0x1838 <vTaskDelete+0x76>
    1822:	80 91 de 02 	lds	r24, 0x02DE	; 0x8002de <uxCurrentNumberOfTasks>
    1826:	81 50       	subi	r24, 0x01	; 1
    1828:	80 93 de 02 	sts	0x02DE, r24	; 0x8002de <uxCurrentNumberOfTasks>
    182c:	8f 89       	ldd	r24, Y+23	; 0x17
    182e:	98 8d       	ldd	r25, Y+24	; 0x18
    1830:	19 da       	rcall	.-3022   	; 0xc64 <vPortFree>
    1832:	ce 01       	movw	r24, r28
    1834:	17 da       	rcall	.-3026   	; 0xc64 <vPortFree>
    1836:	61 de       	rcall	.-830    	; 0x14fa <prvResetNextTaskUnblockTime>
    1838:	0f 90       	pop	r0
    183a:	0f be       	out	0x3f, r0	; 63
    183c:	80 91 da 02 	lds	r24, 0x02DA	; 0x8002da <xSchedulerRunning>
    1840:	88 23       	and	r24, r24
    1842:	41 f0       	breq	.+16     	; 0x1854 <vTaskDelete+0x92>
    1844:	80 91 35 03 	lds	r24, 0x0335	; 0x800335 <pxCurrentTCB>
    1848:	90 91 36 03 	lds	r25, 0x0336	; 0x800336 <pxCurrentTCB+0x1>
    184c:	c8 17       	cp	r28, r24
    184e:	d9 07       	cpc	r29, r25
    1850:	09 f4       	brne	.+2      	; 0x1854 <vTaskDelete+0x92>
    1852:	f6 da       	rcall	.-2580   	; 0xe40 <vPortYield>
    1854:	df 91       	pop	r29
    1856:	cf 91       	pop	r28
    1858:	1f 91       	pop	r17
    185a:	0f 91       	pop	r16
    185c:	08 95       	ret

0000185e <eTaskGetState>:
    185e:	fc 01       	movw	r30, r24
    1860:	80 91 35 03 	lds	r24, 0x0335	; 0x800335 <pxCurrentTCB>
    1864:	90 91 36 03 	lds	r25, 0x0336	; 0x800336 <pxCurrentTCB+0x1>
    1868:	e8 17       	cp	r30, r24
    186a:	f9 07       	cpc	r31, r25
    186c:	51 f1       	breq	.+84     	; 0x18c2 <eTaskGetState+0x64>
    186e:	0f b6       	in	r0, 0x3f	; 63
    1870:	f8 94       	cli
    1872:	0f 92       	push	r0
    1874:	22 85       	ldd	r18, Z+10	; 0x0a
    1876:	33 85       	ldd	r19, Z+11	; 0x0b
    1878:	40 91 fd 02 	lds	r20, 0x02FD	; 0x8002fd <pxDelayedTaskList>
    187c:	50 91 fe 02 	lds	r21, 0x02FE	; 0x8002fe <pxDelayedTaskList+0x1>
    1880:	80 91 fb 02 	lds	r24, 0x02FB	; 0x8002fb <pxOverflowDelayedTaskList>
    1884:	90 91 fc 02 	lds	r25, 0x02FC	; 0x8002fc <pxOverflowDelayedTaskList+0x1>
    1888:	0f 90       	pop	r0
    188a:	0f be       	out	0x3f, r0	; 63
    188c:	24 17       	cp	r18, r20
    188e:	35 07       	cpc	r19, r21
    1890:	d1 f0       	breq	.+52     	; 0x18c6 <eTaskGetState+0x68>
    1892:	28 17       	cp	r18, r24
    1894:	39 07       	cpc	r19, r25
    1896:	b9 f0       	breq	.+46     	; 0x18c6 <eTaskGetState+0x68>
    1898:	82 e0       	ldi	r24, 0x02	; 2
    189a:	2f 3d       	cpi	r18, 0xDF	; 223
    189c:	38 07       	cpc	r19, r24
    189e:	49 f4       	brne	.+18     	; 0x18b2 <eTaskGetState+0x54>
    18a0:	84 89       	ldd	r24, Z+20	; 0x14
    18a2:	95 89       	ldd	r25, Z+21	; 0x15
    18a4:	89 2b       	or	r24, r25
    18a6:	79 f4       	brne	.+30     	; 0x18c6 <eTaskGetState+0x68>
    18a8:	87 a1       	ldd	r24, Z+39	; 0x27
    18aa:	81 30       	cpi	r24, 0x01	; 1
    18ac:	61 f0       	breq	.+24     	; 0x18c6 <eTaskGetState+0x68>
    18ae:	83 e0       	ldi	r24, 0x03	; 3
    18b0:	08 95       	ret
    18b2:	82 e0       	ldi	r24, 0x02	; 2
    18b4:	29 3e       	cpi	r18, 0xE9	; 233
    18b6:	38 07       	cpc	r19, r24
    18b8:	41 f0       	breq	.+16     	; 0x18ca <eTaskGetState+0x6c>
    18ba:	23 2b       	or	r18, r19
    18bc:	31 f0       	breq	.+12     	; 0x18ca <eTaskGetState+0x6c>
    18be:	81 e0       	ldi	r24, 0x01	; 1
    18c0:	08 95       	ret
    18c2:	80 e0       	ldi	r24, 0x00	; 0
    18c4:	08 95       	ret
    18c6:	82 e0       	ldi	r24, 0x02	; 2
    18c8:	08 95       	ret
    18ca:	84 e0       	ldi	r24, 0x04	; 4
    18cc:	08 95       	ret

000018ce <vTaskResume>:
    18ce:	0f 93       	push	r16
    18d0:	1f 93       	push	r17
    18d2:	cf 93       	push	r28
    18d4:	df 93       	push	r29
    18d6:	20 91 35 03 	lds	r18, 0x0335	; 0x800335 <pxCurrentTCB>
    18da:	30 91 36 03 	lds	r19, 0x0336	; 0x800336 <pxCurrentTCB+0x1>
    18de:	82 17       	cp	r24, r18
    18e0:	93 07       	cpc	r25, r19
    18e2:	09 f4       	brne	.+2      	; 0x18e6 <vTaskResume+0x18>
    18e4:	35 c0       	rjmp	.+106    	; 0x1950 <vTaskResume+0x82>
    18e6:	00 97       	sbiw	r24, 0x00	; 0
    18e8:	09 f4       	brne	.+2      	; 0x18ec <vTaskResume+0x1e>
    18ea:	32 c0       	rjmp	.+100    	; 0x1950 <vTaskResume+0x82>
    18ec:	0f b6       	in	r0, 0x3f	; 63
    18ee:	f8 94       	cli
    18f0:	0f 92       	push	r0
    18f2:	fc 01       	movw	r30, r24
    18f4:	22 85       	ldd	r18, Z+10	; 0x0a
    18f6:	33 85       	ldd	r19, Z+11	; 0x0b
    18f8:	2f 5d       	subi	r18, 0xDF	; 223
    18fa:	32 40       	sbci	r19, 0x02	; 2
    18fc:	39 f5       	brne	.+78     	; 0x194c <vTaskResume+0x7e>
    18fe:	fc 01       	movw	r30, r24
    1900:	24 89       	ldd	r18, Z+20	; 0x14
    1902:	35 89       	ldd	r19, Z+21	; 0x15
    1904:	f2 e0       	ldi	r31, 0x02	; 2
    1906:	22 3f       	cpi	r18, 0xF2	; 242
    1908:	3f 07       	cpc	r19, r31
    190a:	01 f1       	breq	.+64     	; 0x194c <vTaskResume+0x7e>
    190c:	23 2b       	or	r18, r19
    190e:	f1 f4       	brne	.+60     	; 0x194c <vTaskResume+0x7e>
    1910:	ec 01       	movw	r28, r24
    1912:	8c 01       	movw	r16, r24
    1914:	0e 5f       	subi	r16, 0xFE	; 254
    1916:	1f 4f       	sbci	r17, 0xFF	; 255
    1918:	c8 01       	movw	r24, r16
    191a:	1e da       	rcall	.-3012   	; 0xd58 <uxListRemove>
    191c:	8e 89       	ldd	r24, Y+22	; 0x16
    191e:	90 91 db 02 	lds	r25, 0x02DB	; 0x8002db <uxTopReadyPriority>
    1922:	98 17       	cp	r25, r24
    1924:	10 f4       	brcc	.+4      	; 0x192a <vTaskResume+0x5c>
    1926:	80 93 db 02 	sts	0x02DB, r24	; 0x8002db <uxTopReadyPriority>
    192a:	29 e0       	ldi	r18, 0x09	; 9
    192c:	82 9f       	mul	r24, r18
    192e:	c0 01       	movw	r24, r0
    1930:	11 24       	eor	r1, r1
    1932:	b8 01       	movw	r22, r16
    1934:	8f 5e       	subi	r24, 0xEF	; 239
    1936:	9c 4f       	sbci	r25, 0xFC	; 252
    1938:	b6 d9       	rcall	.-3220   	; 0xca6 <vListInsertEnd>
    193a:	e0 91 35 03 	lds	r30, 0x0335	; 0x800335 <pxCurrentTCB>
    193e:	f0 91 36 03 	lds	r31, 0x0336	; 0x800336 <pxCurrentTCB+0x1>
    1942:	9e 89       	ldd	r25, Y+22	; 0x16
    1944:	86 89       	ldd	r24, Z+22	; 0x16
    1946:	98 17       	cp	r25, r24
    1948:	08 f0       	brcs	.+2      	; 0x194c <vTaskResume+0x7e>
    194a:	7a da       	rcall	.-2828   	; 0xe40 <vPortYield>
    194c:	0f 90       	pop	r0
    194e:	0f be       	out	0x3f, r0	; 63
    1950:	df 91       	pop	r29
    1952:	cf 91       	pop	r28
    1954:	1f 91       	pop	r17
    1956:	0f 91       	pop	r16
    1958:	08 95       	ret

0000195a <vTaskStartScheduler>:
    195a:	ef 92       	push	r14
    195c:	ff 92       	push	r15
    195e:	0f 93       	push	r16
    1960:	81 ed       	ldi	r24, 0xD1	; 209
    1962:	e8 2e       	mov	r14, r24
    1964:	82 e0       	ldi	r24, 0x02	; 2
    1966:	f8 2e       	mov	r15, r24
    1968:	00 e0       	ldi	r16, 0x00	; 0
    196a:	20 e0       	ldi	r18, 0x00	; 0
    196c:	30 e0       	ldi	r19, 0x00	; 0
    196e:	40 e0       	ldi	r20, 0x00	; 0
    1970:	51 e0       	ldi	r21, 0x01	; 1
    1972:	65 e8       	ldi	r22, 0x85	; 133
    1974:	72 e0       	ldi	r23, 0x02	; 2
    1976:	82 e7       	ldi	r24, 0x72	; 114
    1978:	90 e0       	ldi	r25, 0x00	; 0
    197a:	2f de       	rcall	.-930    	; 0x15da <xTaskCreate>
    197c:	81 30       	cpi	r24, 0x01	; 1
    197e:	71 f4       	brne	.+28     	; 0x199c <vTaskStartScheduler+0x42>
    1980:	f8 94       	cli
    1982:	2f ef       	ldi	r18, 0xFF	; 255
    1984:	3f ef       	ldi	r19, 0xFF	; 255
    1986:	30 93 d4 02 	sts	0x02D4, r19	; 0x8002d4 <xNextTaskUnblockTime+0x1>
    198a:	20 93 d3 02 	sts	0x02D3, r18	; 0x8002d3 <xNextTaskUnblockTime>
    198e:	80 93 da 02 	sts	0x02DA, r24	; 0x8002da <xSchedulerRunning>
    1992:	10 92 dd 02 	sts	0x02DD, r1	; 0x8002dd <xTickCount+0x1>
    1996:	10 92 dc 02 	sts	0x02DC, r1	; 0x8002dc <xTickCount>
    199a:	19 da       	rcall	.-3022   	; 0xdce <xPortStartScheduler>
    199c:	80 91 3c 02 	lds	r24, 0x023C	; 0x80023c <uxTopUsedPriority>
    19a0:	0f 91       	pop	r16
    19a2:	ff 90       	pop	r15
    19a4:	ef 90       	pop	r14
    19a6:	08 95       	ret

000019a8 <vTaskSuspendAll>:
    19a8:	80 91 d0 02 	lds	r24, 0x02D0	; 0x8002d0 <uxSchedulerSuspended>
    19ac:	8f 5f       	subi	r24, 0xFF	; 255
    19ae:	80 93 d0 02 	sts	0x02D0, r24	; 0x8002d0 <uxSchedulerSuspended>
    19b2:	08 95       	ret

000019b4 <xTaskIncrementTick>:
    19b4:	cf 92       	push	r12
    19b6:	df 92       	push	r13
    19b8:	ef 92       	push	r14
    19ba:	ff 92       	push	r15
    19bc:	0f 93       	push	r16
    19be:	1f 93       	push	r17
    19c0:	cf 93       	push	r28
    19c2:	df 93       	push	r29
    19c4:	80 91 d0 02 	lds	r24, 0x02D0	; 0x8002d0 <uxSchedulerSuspended>
    19c8:	81 11       	cpse	r24, r1
    19ca:	8d c0       	rjmp	.+282    	; 0x1ae6 <xTaskIncrementTick+0x132>
    19cc:	00 91 dc 02 	lds	r16, 0x02DC	; 0x8002dc <xTickCount>
    19d0:	10 91 dd 02 	lds	r17, 0x02DD	; 0x8002dd <xTickCount+0x1>
    19d4:	0f 5f       	subi	r16, 0xFF	; 255
    19d6:	1f 4f       	sbci	r17, 0xFF	; 255
    19d8:	10 93 dd 02 	sts	0x02DD, r17	; 0x8002dd <xTickCount+0x1>
    19dc:	00 93 dc 02 	sts	0x02DC, r16	; 0x8002dc <xTickCount>
    19e0:	01 15       	cp	r16, r1
    19e2:	11 05       	cpc	r17, r1
    19e4:	b1 f4       	brne	.+44     	; 0x1a12 <xTaskIncrementTick+0x5e>
    19e6:	80 91 fd 02 	lds	r24, 0x02FD	; 0x8002fd <pxDelayedTaskList>
    19ea:	90 91 fe 02 	lds	r25, 0x02FE	; 0x8002fe <pxDelayedTaskList+0x1>
    19ee:	20 91 fb 02 	lds	r18, 0x02FB	; 0x8002fb <pxOverflowDelayedTaskList>
    19f2:	30 91 fc 02 	lds	r19, 0x02FC	; 0x8002fc <pxOverflowDelayedTaskList+0x1>
    19f6:	30 93 fe 02 	sts	0x02FE, r19	; 0x8002fe <pxDelayedTaskList+0x1>
    19fa:	20 93 fd 02 	sts	0x02FD, r18	; 0x8002fd <pxDelayedTaskList>
    19fe:	90 93 fc 02 	sts	0x02FC, r25	; 0x8002fc <pxOverflowDelayedTaskList+0x1>
    1a02:	80 93 fb 02 	sts	0x02FB, r24	; 0x8002fb <pxOverflowDelayedTaskList>
    1a06:	80 91 d6 02 	lds	r24, 0x02D6	; 0x8002d6 <xNumOfOverflows>
    1a0a:	8f 5f       	subi	r24, 0xFF	; 255
    1a0c:	80 93 d6 02 	sts	0x02D6, r24	; 0x8002d6 <xNumOfOverflows>
    1a10:	74 dd       	rcall	.-1304   	; 0x14fa <prvResetNextTaskUnblockTime>
    1a12:	80 91 d3 02 	lds	r24, 0x02D3	; 0x8002d3 <xNextTaskUnblockTime>
    1a16:	90 91 d4 02 	lds	r25, 0x02D4	; 0x8002d4 <xNextTaskUnblockTime+0x1>
    1a1a:	c0 e0       	ldi	r28, 0x00	; 0
    1a1c:	08 17       	cp	r16, r24
    1a1e:	19 07       	cpc	r17, r25
    1a20:	08 f4       	brcc	.+2      	; 0x1a24 <xTaskIncrementTick+0x70>
    1a22:	4c c0       	rjmp	.+152    	; 0x1abc <xTaskIncrementTick+0x108>
    1a24:	d9 e0       	ldi	r29, 0x09	; 9
    1a26:	e0 91 fd 02 	lds	r30, 0x02FD	; 0x8002fd <pxDelayedTaskList>
    1a2a:	f0 91 fe 02 	lds	r31, 0x02FE	; 0x8002fe <pxDelayedTaskList+0x1>
    1a2e:	80 81       	ld	r24, Z
    1a30:	81 11       	cpse	r24, r1
    1a32:	03 c0       	rjmp	.+6      	; 0x1a3a <xTaskIncrementTick+0x86>
    1a34:	8f ef       	ldi	r24, 0xFF	; 255
    1a36:	9f ef       	ldi	r25, 0xFF	; 255
    1a38:	11 c0       	rjmp	.+34     	; 0x1a5c <xTaskIncrementTick+0xa8>
    1a3a:	e0 91 fd 02 	lds	r30, 0x02FD	; 0x8002fd <pxDelayedTaskList>
    1a3e:	f0 91 fe 02 	lds	r31, 0x02FE	; 0x8002fe <pxDelayedTaskList+0x1>
    1a42:	05 80       	ldd	r0, Z+5	; 0x05
    1a44:	f6 81       	ldd	r31, Z+6	; 0x06
    1a46:	e0 2d       	mov	r30, r0
    1a48:	e6 80       	ldd	r14, Z+6	; 0x06
    1a4a:	f7 80       	ldd	r15, Z+7	; 0x07
    1a4c:	d7 01       	movw	r26, r14
    1a4e:	12 96       	adiw	r26, 0x02	; 2
    1a50:	8d 91       	ld	r24, X+
    1a52:	9c 91       	ld	r25, X
    1a54:	13 97       	sbiw	r26, 0x03	; 3
    1a56:	08 17       	cp	r16, r24
    1a58:	19 07       	cpc	r17, r25
    1a5a:	28 f4       	brcc	.+10     	; 0x1a66 <xTaskIncrementTick+0xb2>
    1a5c:	90 93 d4 02 	sts	0x02D4, r25	; 0x8002d4 <xNextTaskUnblockTime+0x1>
    1a60:	80 93 d3 02 	sts	0x02D3, r24	; 0x8002d3 <xNextTaskUnblockTime>
    1a64:	2b c0       	rjmp	.+86     	; 0x1abc <xTaskIncrementTick+0x108>
    1a66:	67 01       	movw	r12, r14
    1a68:	b2 e0       	ldi	r27, 0x02	; 2
    1a6a:	cb 0e       	add	r12, r27
    1a6c:	d1 1c       	adc	r13, r1
    1a6e:	c6 01       	movw	r24, r12
    1a70:	73 d9       	rcall	.-3354   	; 0xd58 <uxListRemove>
    1a72:	f7 01       	movw	r30, r14
    1a74:	84 89       	ldd	r24, Z+20	; 0x14
    1a76:	95 89       	ldd	r25, Z+21	; 0x15
    1a78:	89 2b       	or	r24, r25
    1a7a:	19 f0       	breq	.+6      	; 0x1a82 <xTaskIncrementTick+0xce>
    1a7c:	c7 01       	movw	r24, r14
    1a7e:	0c 96       	adiw	r24, 0x0c	; 12
    1a80:	6b d9       	rcall	.-3370   	; 0xd58 <uxListRemove>
    1a82:	d7 01       	movw	r26, r14
    1a84:	56 96       	adiw	r26, 0x16	; 22
    1a86:	8c 91       	ld	r24, X
    1a88:	90 91 db 02 	lds	r25, 0x02DB	; 0x8002db <uxTopReadyPriority>
    1a8c:	98 17       	cp	r25, r24
    1a8e:	10 f4       	brcc	.+4      	; 0x1a94 <xTaskIncrementTick+0xe0>
    1a90:	80 93 db 02 	sts	0x02DB, r24	; 0x8002db <uxTopReadyPriority>
    1a94:	d8 9f       	mul	r29, r24
    1a96:	c0 01       	movw	r24, r0
    1a98:	11 24       	eor	r1, r1
    1a9a:	b6 01       	movw	r22, r12
    1a9c:	8f 5e       	subi	r24, 0xEF	; 239
    1a9e:	9c 4f       	sbci	r25, 0xFC	; 252
    1aa0:	02 d9       	rcall	.-3580   	; 0xca6 <vListInsertEnd>
    1aa2:	e0 91 35 03 	lds	r30, 0x0335	; 0x800335 <pxCurrentTCB>
    1aa6:	f0 91 36 03 	lds	r31, 0x0336	; 0x800336 <pxCurrentTCB+0x1>
    1aaa:	d7 01       	movw	r26, r14
    1aac:	56 96       	adiw	r26, 0x16	; 22
    1aae:	9c 91       	ld	r25, X
    1ab0:	86 89       	ldd	r24, Z+22	; 0x16
    1ab2:	98 17       	cp	r25, r24
    1ab4:	08 f4       	brcc	.+2      	; 0x1ab8 <xTaskIncrementTick+0x104>
    1ab6:	b7 cf       	rjmp	.-146    	; 0x1a26 <xTaskIncrementTick+0x72>
    1ab8:	c1 e0       	ldi	r28, 0x01	; 1
    1aba:	b5 cf       	rjmp	.-150    	; 0x1a26 <xTaskIncrementTick+0x72>
    1abc:	e0 91 35 03 	lds	r30, 0x0335	; 0x800335 <pxCurrentTCB>
    1ac0:	f0 91 36 03 	lds	r31, 0x0336	; 0x800336 <pxCurrentTCB+0x1>
    1ac4:	e6 89       	ldd	r30, Z+22	; 0x16
    1ac6:	b9 e0       	ldi	r27, 0x09	; 9
    1ac8:	eb 9f       	mul	r30, r27
    1aca:	f0 01       	movw	r30, r0
    1acc:	11 24       	eor	r1, r1
    1ace:	ef 5e       	subi	r30, 0xEF	; 239
    1ad0:	fc 4f       	sbci	r31, 0xFC	; 252
    1ad2:	80 81       	ld	r24, Z
    1ad4:	82 30       	cpi	r24, 0x02	; 2
    1ad6:	08 f0       	brcs	.+2      	; 0x1ada <xTaskIncrementTick+0x126>
    1ad8:	c1 e0       	ldi	r28, 0x01	; 1
    1ada:	80 91 d7 02 	lds	r24, 0x02D7	; 0x8002d7 <xYieldPending>
    1ade:	88 23       	and	r24, r24
    1ae0:	61 f0       	breq	.+24     	; 0x1afa <xTaskIncrementTick+0x146>
    1ae2:	c1 e0       	ldi	r28, 0x01	; 1
    1ae4:	0a c0       	rjmp	.+20     	; 0x1afa <xTaskIncrementTick+0x146>
    1ae6:	80 91 d8 02 	lds	r24, 0x02D8	; 0x8002d8 <xPendedTicks>
    1aea:	90 91 d9 02 	lds	r25, 0x02D9	; 0x8002d9 <xPendedTicks+0x1>
    1aee:	01 96       	adiw	r24, 0x01	; 1
    1af0:	90 93 d9 02 	sts	0x02D9, r25	; 0x8002d9 <xPendedTicks+0x1>
    1af4:	80 93 d8 02 	sts	0x02D8, r24	; 0x8002d8 <xPendedTicks>
    1af8:	c0 e0       	ldi	r28, 0x00	; 0
    1afa:	8c 2f       	mov	r24, r28
    1afc:	df 91       	pop	r29
    1afe:	cf 91       	pop	r28
    1b00:	1f 91       	pop	r17
    1b02:	0f 91       	pop	r16
    1b04:	ff 90       	pop	r15
    1b06:	ef 90       	pop	r14
    1b08:	df 90       	pop	r13
    1b0a:	cf 90       	pop	r12
    1b0c:	08 95       	ret

00001b0e <xTaskResumeAll>:
    1b0e:	ef 92       	push	r14
    1b10:	ff 92       	push	r15
    1b12:	0f 93       	push	r16
    1b14:	1f 93       	push	r17
    1b16:	cf 93       	push	r28
    1b18:	df 93       	push	r29
    1b1a:	0f b6       	in	r0, 0x3f	; 63
    1b1c:	f8 94       	cli
    1b1e:	0f 92       	push	r0
    1b20:	80 91 d0 02 	lds	r24, 0x02D0	; 0x8002d0 <uxSchedulerSuspended>
    1b24:	81 50       	subi	r24, 0x01	; 1
    1b26:	80 93 d0 02 	sts	0x02D0, r24	; 0x8002d0 <uxSchedulerSuspended>
    1b2a:	80 91 d0 02 	lds	r24, 0x02D0	; 0x8002d0 <uxSchedulerSuspended>
    1b2e:	88 23       	and	r24, r24
    1b30:	11 f0       	breq	.+4      	; 0x1b36 <xTaskResumeAll+0x28>
    1b32:	80 e0       	ldi	r24, 0x00	; 0
    1b34:	50 c0       	rjmp	.+160    	; 0x1bd6 <xTaskResumeAll+0xc8>
    1b36:	80 91 de 02 	lds	r24, 0x02DE	; 0x8002de <uxCurrentNumberOfTasks>
    1b3a:	88 23       	and	r24, r24
    1b3c:	d1 f3       	breq	.-12     	; 0x1b32 <xTaskResumeAll+0x24>
    1b3e:	c0 e0       	ldi	r28, 0x00	; 0
    1b40:	d0 e0       	ldi	r29, 0x00	; 0
    1b42:	89 e0       	ldi	r24, 0x09	; 9
    1b44:	f8 2e       	mov	r15, r24
    1b46:	ee 24       	eor	r14, r14
    1b48:	e3 94       	inc	r14
    1b4a:	80 91 f2 02 	lds	r24, 0x02F2	; 0x8002f2 <xPendingReadyList>
    1b4e:	88 23       	and	r24, r24
    1b50:	39 f1       	breq	.+78     	; 0x1ba0 <xTaskResumeAll+0x92>
    1b52:	e0 91 f7 02 	lds	r30, 0x02F7	; 0x8002f7 <xPendingReadyList+0x5>
    1b56:	f0 91 f8 02 	lds	r31, 0x02F8	; 0x8002f8 <xPendingReadyList+0x6>
    1b5a:	c6 81       	ldd	r28, Z+6	; 0x06
    1b5c:	d7 81       	ldd	r29, Z+7	; 0x07
    1b5e:	ce 01       	movw	r24, r28
    1b60:	0c 96       	adiw	r24, 0x0c	; 12
    1b62:	fa d8       	rcall	.-3596   	; 0xd58 <uxListRemove>
    1b64:	8e 01       	movw	r16, r28
    1b66:	0e 5f       	subi	r16, 0xFE	; 254
    1b68:	1f 4f       	sbci	r17, 0xFF	; 255
    1b6a:	c8 01       	movw	r24, r16
    1b6c:	f5 d8       	rcall	.-3606   	; 0xd58 <uxListRemove>
    1b6e:	8e 89       	ldd	r24, Y+22	; 0x16
    1b70:	90 91 db 02 	lds	r25, 0x02DB	; 0x8002db <uxTopReadyPriority>
    1b74:	98 17       	cp	r25, r24
    1b76:	10 f4       	brcc	.+4      	; 0x1b7c <xTaskResumeAll+0x6e>
    1b78:	80 93 db 02 	sts	0x02DB, r24	; 0x8002db <uxTopReadyPriority>
    1b7c:	f8 9e       	mul	r15, r24
    1b7e:	c0 01       	movw	r24, r0
    1b80:	11 24       	eor	r1, r1
    1b82:	b8 01       	movw	r22, r16
    1b84:	8f 5e       	subi	r24, 0xEF	; 239
    1b86:	9c 4f       	sbci	r25, 0xFC	; 252
    1b88:	8e d8       	rcall	.-3812   	; 0xca6 <vListInsertEnd>
    1b8a:	e0 91 35 03 	lds	r30, 0x0335	; 0x800335 <pxCurrentTCB>
    1b8e:	f0 91 36 03 	lds	r31, 0x0336	; 0x800336 <pxCurrentTCB+0x1>
    1b92:	9e 89       	ldd	r25, Y+22	; 0x16
    1b94:	86 89       	ldd	r24, Z+22	; 0x16
    1b96:	98 17       	cp	r25, r24
    1b98:	c0 f2       	brcs	.-80     	; 0x1b4a <xTaskResumeAll+0x3c>
    1b9a:	e0 92 d7 02 	sts	0x02D7, r14	; 0x8002d7 <xYieldPending>
    1b9e:	d5 cf       	rjmp	.-86     	; 0x1b4a <xTaskResumeAll+0x3c>
    1ba0:	cd 2b       	or	r28, r29
    1ba2:	09 f0       	breq	.+2      	; 0x1ba6 <xTaskResumeAll+0x98>
    1ba4:	aa dc       	rcall	.-1708   	; 0x14fa <prvResetNextTaskUnblockTime>
    1ba6:	c0 91 d8 02 	lds	r28, 0x02D8	; 0x8002d8 <xPendedTicks>
    1baa:	d0 91 d9 02 	lds	r29, 0x02D9	; 0x8002d9 <xPendedTicks+0x1>
    1bae:	20 97       	sbiw	r28, 0x00	; 0
    1bb0:	59 f0       	breq	.+22     	; 0x1bc8 <xTaskResumeAll+0xba>
    1bb2:	11 e0       	ldi	r17, 0x01	; 1
    1bb4:	ff de       	rcall	.-514    	; 0x19b4 <xTaskIncrementTick>
    1bb6:	81 11       	cpse	r24, r1
    1bb8:	10 93 d7 02 	sts	0x02D7, r17	; 0x8002d7 <xYieldPending>
    1bbc:	21 97       	sbiw	r28, 0x01	; 1
    1bbe:	d1 f7       	brne	.-12     	; 0x1bb4 <xTaskResumeAll+0xa6>
    1bc0:	10 92 d9 02 	sts	0x02D9, r1	; 0x8002d9 <xPendedTicks+0x1>
    1bc4:	10 92 d8 02 	sts	0x02D8, r1	; 0x8002d8 <xPendedTicks>
    1bc8:	80 91 d7 02 	lds	r24, 0x02D7	; 0x8002d7 <xYieldPending>
    1bcc:	88 23       	and	r24, r24
    1bce:	09 f4       	brne	.+2      	; 0x1bd2 <xTaskResumeAll+0xc4>
    1bd0:	b0 cf       	rjmp	.-160    	; 0x1b32 <xTaskResumeAll+0x24>
    1bd2:	36 d9       	rcall	.-3476   	; 0xe40 <vPortYield>
    1bd4:	81 e0       	ldi	r24, 0x01	; 1
    1bd6:	0f 90       	pop	r0
    1bd8:	0f be       	out	0x3f, r0	; 63
    1bda:	df 91       	pop	r29
    1bdc:	cf 91       	pop	r28
    1bde:	1f 91       	pop	r17
    1be0:	0f 91       	pop	r16
    1be2:	ff 90       	pop	r15
    1be4:	ef 90       	pop	r14
    1be6:	08 95       	ret

00001be8 <vTaskDelay>:
    1be8:	cf 93       	push	r28
    1bea:	df 93       	push	r29
    1bec:	ec 01       	movw	r28, r24
    1bee:	89 2b       	or	r24, r25
    1bf0:	11 f4       	brne	.+4      	; 0x1bf6 <vTaskDelay+0xe>
    1bf2:	26 d9       	rcall	.-3508   	; 0xe40 <vPortYield>
    1bf4:	07 c0       	rjmp	.+14     	; 0x1c04 <vTaskDelay+0x1c>
    1bf6:	d8 de       	rcall	.-592    	; 0x19a8 <vTaskSuspendAll>
    1bf8:	60 e0       	ldi	r22, 0x00	; 0
    1bfa:	ce 01       	movw	r24, r28
    1bfc:	96 dc       	rcall	.-1748   	; 0x152a <prvAddCurrentTaskToDelayedList>
    1bfe:	87 df       	rcall	.-242    	; 0x1b0e <xTaskResumeAll>
    1c00:	88 23       	and	r24, r24
    1c02:	b9 f3       	breq	.-18     	; 0x1bf2 <vTaskDelay+0xa>
    1c04:	df 91       	pop	r29
    1c06:	cf 91       	pop	r28
    1c08:	08 95       	ret

00001c0a <vTaskSwitchContext>:
    1c0a:	80 91 d0 02 	lds	r24, 0x02D0	; 0x8002d0 <uxSchedulerSuspended>
    1c0e:	88 23       	and	r24, r24
    1c10:	21 f0       	breq	.+8      	; 0x1c1a <vTaskSwitchContext+0x10>
    1c12:	81 e0       	ldi	r24, 0x01	; 1
    1c14:	80 93 d7 02 	sts	0x02D7, r24	; 0x8002d7 <xYieldPending>
    1c18:	08 95       	ret
    1c1a:	10 92 d7 02 	sts	0x02D7, r1	; 0x8002d7 <xYieldPending>
    1c1e:	80 91 db 02 	lds	r24, 0x02DB	; 0x8002db <uxTopReadyPriority>
    1c22:	69 e0       	ldi	r22, 0x09	; 9
    1c24:	48 2f       	mov	r20, r24
    1c26:	50 e0       	ldi	r21, 0x00	; 0
    1c28:	64 9f       	mul	r22, r20
    1c2a:	90 01       	movw	r18, r0
    1c2c:	65 9f       	mul	r22, r21
    1c2e:	30 0d       	add	r19, r0
    1c30:	11 24       	eor	r1, r1
    1c32:	f9 01       	movw	r30, r18
    1c34:	ef 5e       	subi	r30, 0xEF	; 239
    1c36:	fc 4f       	sbci	r31, 0xFC	; 252
    1c38:	90 81       	ld	r25, Z
    1c3a:	91 11       	cpse	r25, r1
    1c3c:	02 c0       	rjmp	.+4      	; 0x1c42 <vTaskSwitchContext+0x38>
    1c3e:	81 50       	subi	r24, 0x01	; 1
    1c40:	f1 cf       	rjmp	.-30     	; 0x1c24 <vTaskSwitchContext+0x1a>
    1c42:	a1 81       	ldd	r26, Z+1	; 0x01
    1c44:	b2 81       	ldd	r27, Z+2	; 0x02
    1c46:	12 96       	adiw	r26, 0x02	; 2
    1c48:	0d 90       	ld	r0, X+
    1c4a:	bc 91       	ld	r27, X
    1c4c:	a0 2d       	mov	r26, r0
    1c4e:	b2 83       	std	Z+2, r27	; 0x02
    1c50:	a1 83       	std	Z+1, r26	; 0x01
    1c52:	2c 5e       	subi	r18, 0xEC	; 236
    1c54:	3c 4f       	sbci	r19, 0xFC	; 252
    1c56:	a2 17       	cp	r26, r18
    1c58:	b3 07       	cpc	r27, r19
    1c5a:	31 f4       	brne	.+12     	; 0x1c68 <vTaskSwitchContext+0x5e>
    1c5c:	12 96       	adiw	r26, 0x02	; 2
    1c5e:	2d 91       	ld	r18, X+
    1c60:	3c 91       	ld	r19, X
    1c62:	13 97       	sbiw	r26, 0x03	; 3
    1c64:	32 83       	std	Z+2, r19	; 0x02
    1c66:	21 83       	std	Z+1, r18	; 0x01
    1c68:	99 e0       	ldi	r25, 0x09	; 9
    1c6a:	94 9f       	mul	r25, r20
    1c6c:	f0 01       	movw	r30, r0
    1c6e:	95 9f       	mul	r25, r21
    1c70:	f0 0d       	add	r31, r0
    1c72:	11 24       	eor	r1, r1
    1c74:	ef 5e       	subi	r30, 0xEF	; 239
    1c76:	fc 4f       	sbci	r31, 0xFC	; 252
    1c78:	01 80       	ldd	r0, Z+1	; 0x01
    1c7a:	f2 81       	ldd	r31, Z+2	; 0x02
    1c7c:	e0 2d       	mov	r30, r0
    1c7e:	26 81       	ldd	r18, Z+6	; 0x06
    1c80:	37 81       	ldd	r19, Z+7	; 0x07
    1c82:	30 93 36 03 	sts	0x0336, r19	; 0x800336 <pxCurrentTCB+0x1>
    1c86:	20 93 35 03 	sts	0x0335, r18	; 0x800335 <pxCurrentTCB>
    1c8a:	80 93 db 02 	sts	0x02DB, r24	; 0x8002db <uxTopReadyPriority>
    1c8e:	08 95       	ret

00001c90 <vTaskSuspend>:
    1c90:	0f 93       	push	r16
    1c92:	1f 93       	push	r17
    1c94:	cf 93       	push	r28
    1c96:	df 93       	push	r29
    1c98:	ec 01       	movw	r28, r24
    1c9a:	0f b6       	in	r0, 0x3f	; 63
    1c9c:	f8 94       	cli
    1c9e:	0f 92       	push	r0
    1ca0:	89 2b       	or	r24, r25
    1ca2:	21 f4       	brne	.+8      	; 0x1cac <vTaskSuspend+0x1c>
    1ca4:	c0 91 35 03 	lds	r28, 0x0335	; 0x800335 <pxCurrentTCB>
    1ca8:	d0 91 36 03 	lds	r29, 0x0336	; 0x800336 <pxCurrentTCB+0x1>
    1cac:	8e 01       	movw	r16, r28
    1cae:	0e 5f       	subi	r16, 0xFE	; 254
    1cb0:	1f 4f       	sbci	r17, 0xFF	; 255
    1cb2:	c8 01       	movw	r24, r16
    1cb4:	51 d8       	rcall	.-3934   	; 0xd58 <uxListRemove>
    1cb6:	8c 89       	ldd	r24, Y+20	; 0x14
    1cb8:	9d 89       	ldd	r25, Y+21	; 0x15
    1cba:	89 2b       	or	r24, r25
    1cbc:	19 f0       	breq	.+6      	; 0x1cc4 <vTaskSuspend+0x34>
    1cbe:	ce 01       	movw	r24, r28
    1cc0:	0c 96       	adiw	r24, 0x0c	; 12
    1cc2:	4a d8       	rcall	.-3948   	; 0xd58 <uxListRemove>
    1cc4:	b8 01       	movw	r22, r16
    1cc6:	8f ed       	ldi	r24, 0xDF	; 223
    1cc8:	92 e0       	ldi	r25, 0x02	; 2
    1cca:	0e 94 53 06 	call	0xca6	; 0xca6 <vListInsertEnd>
    1cce:	8f a1       	ldd	r24, Y+39	; 0x27
    1cd0:	81 30       	cpi	r24, 0x01	; 1
    1cd2:	09 f4       	brne	.+2      	; 0x1cd6 <vTaskSuspend+0x46>
    1cd4:	1f a2       	std	Y+39, r1	; 0x27
    1cd6:	0f 90       	pop	r0
    1cd8:	0f be       	out	0x3f, r0	; 63
    1cda:	80 91 da 02 	lds	r24, 0x02DA	; 0x8002da <xSchedulerRunning>
    1cde:	88 23       	and	r24, r24
    1ce0:	31 f0       	breq	.+12     	; 0x1cee <vTaskSuspend+0x5e>
    1ce2:	0f b6       	in	r0, 0x3f	; 63
    1ce4:	f8 94       	cli
    1ce6:	0f 92       	push	r0
    1ce8:	08 dc       	rcall	.-2032   	; 0x14fa <prvResetNextTaskUnblockTime>
    1cea:	0f 90       	pop	r0
    1cec:	0f be       	out	0x3f, r0	; 63
    1cee:	80 91 35 03 	lds	r24, 0x0335	; 0x800335 <pxCurrentTCB>
    1cf2:	90 91 36 03 	lds	r25, 0x0336	; 0x800336 <pxCurrentTCB+0x1>
    1cf6:	c8 17       	cp	r28, r24
    1cf8:	d9 07       	cpc	r29, r25
    1cfa:	b1 f4       	brne	.+44     	; 0x1d28 <vTaskSuspend+0x98>
    1cfc:	80 91 da 02 	lds	r24, 0x02DA	; 0x8002da <xSchedulerRunning>
    1d00:	88 23       	and	r24, r24
    1d02:	11 f0       	breq	.+4      	; 0x1d08 <vTaskSuspend+0x78>
    1d04:	9d d8       	rcall	.-3782   	; 0xe40 <vPortYield>
    1d06:	10 c0       	rjmp	.+32     	; 0x1d28 <vTaskSuspend+0x98>
    1d08:	90 91 df 02 	lds	r25, 0x02DF	; 0x8002df <xSuspendedTaskList>
    1d0c:	80 91 de 02 	lds	r24, 0x02DE	; 0x8002de <uxCurrentNumberOfTasks>
    1d10:	98 13       	cpse	r25, r24
    1d12:	05 c0       	rjmp	.+10     	; 0x1d1e <vTaskSuspend+0x8e>
    1d14:	10 92 36 03 	sts	0x0336, r1	; 0x800336 <pxCurrentTCB+0x1>
    1d18:	10 92 35 03 	sts	0x0335, r1	; 0x800335 <pxCurrentTCB>
    1d1c:	05 c0       	rjmp	.+10     	; 0x1d28 <vTaskSuspend+0x98>
    1d1e:	df 91       	pop	r29
    1d20:	cf 91       	pop	r28
    1d22:	1f 91       	pop	r17
    1d24:	0f 91       	pop	r16
    1d26:	71 cf       	rjmp	.-286    	; 0x1c0a <vTaskSwitchContext>
    1d28:	df 91       	pop	r29
    1d2a:	cf 91       	pop	r28
    1d2c:	1f 91       	pop	r17
    1d2e:	0f 91       	pop	r16
    1d30:	08 95       	ret

00001d32 <vTaskPlaceOnEventList>:
    1d32:	cf 93       	push	r28
    1d34:	df 93       	push	r29
    1d36:	eb 01       	movw	r28, r22
    1d38:	60 91 35 03 	lds	r22, 0x0335	; 0x800335 <pxCurrentTCB>
    1d3c:	70 91 36 03 	lds	r23, 0x0336	; 0x800336 <pxCurrentTCB+0x1>
    1d40:	64 5f       	subi	r22, 0xF4	; 244
    1d42:	7f 4f       	sbci	r23, 0xFF	; 255
    1d44:	0e 94 74 06 	call	0xce8	; 0xce8 <vListInsert>
    1d48:	61 e0       	ldi	r22, 0x01	; 1
    1d4a:	ce 01       	movw	r24, r28
    1d4c:	df 91       	pop	r29
    1d4e:	cf 91       	pop	r28
    1d50:	ec cb       	rjmp	.-2088   	; 0x152a <prvAddCurrentTaskToDelayedList>

00001d52 <xTaskRemoveFromEventList>:
    1d52:	0f 93       	push	r16
    1d54:	1f 93       	push	r17
    1d56:	cf 93       	push	r28
    1d58:	df 93       	push	r29
    1d5a:	dc 01       	movw	r26, r24
    1d5c:	15 96       	adiw	r26, 0x05	; 5
    1d5e:	ed 91       	ld	r30, X+
    1d60:	fc 91       	ld	r31, X
    1d62:	16 97       	sbiw	r26, 0x06	; 6
    1d64:	c6 81       	ldd	r28, Z+6	; 0x06
    1d66:	d7 81       	ldd	r29, Z+7	; 0x07
    1d68:	8e 01       	movw	r16, r28
    1d6a:	04 5f       	subi	r16, 0xF4	; 244
    1d6c:	1f 4f       	sbci	r17, 0xFF	; 255
    1d6e:	c8 01       	movw	r24, r16
    1d70:	0e 94 ac 06 	call	0xd58	; 0xd58 <uxListRemove>
    1d74:	80 91 d0 02 	lds	r24, 0x02D0	; 0x8002d0 <uxSchedulerSuspended>
    1d78:	81 11       	cpse	r24, r1
    1d7a:	14 c0       	rjmp	.+40     	; 0x1da4 <xTaskRemoveFromEventList+0x52>
    1d7c:	0a 50       	subi	r16, 0x0A	; 10
    1d7e:	11 09       	sbc	r17, r1
    1d80:	c8 01       	movw	r24, r16
    1d82:	0e 94 ac 06 	call	0xd58	; 0xd58 <uxListRemove>
    1d86:	8e 89       	ldd	r24, Y+22	; 0x16
    1d88:	90 91 db 02 	lds	r25, 0x02DB	; 0x8002db <uxTopReadyPriority>
    1d8c:	98 17       	cp	r25, r24
    1d8e:	10 f4       	brcc	.+4      	; 0x1d94 <xTaskRemoveFromEventList+0x42>
    1d90:	80 93 db 02 	sts	0x02DB, r24	; 0x8002db <uxTopReadyPriority>
    1d94:	b9 e0       	ldi	r27, 0x09	; 9
    1d96:	8b 9f       	mul	r24, r27
    1d98:	c0 01       	movw	r24, r0
    1d9a:	11 24       	eor	r1, r1
    1d9c:	b8 01       	movw	r22, r16
    1d9e:	8f 5e       	subi	r24, 0xEF	; 239
    1da0:	9c 4f       	sbci	r25, 0xFC	; 252
    1da2:	03 c0       	rjmp	.+6      	; 0x1daa <xTaskRemoveFromEventList+0x58>
    1da4:	b8 01       	movw	r22, r16
    1da6:	82 ef       	ldi	r24, 0xF2	; 242
    1da8:	92 e0       	ldi	r25, 0x02	; 2
    1daa:	0e 94 53 06 	call	0xca6	; 0xca6 <vListInsertEnd>
    1dae:	e0 91 35 03 	lds	r30, 0x0335	; 0x800335 <pxCurrentTCB>
    1db2:	f0 91 36 03 	lds	r31, 0x0336	; 0x800336 <pxCurrentTCB+0x1>
    1db6:	9e 89       	ldd	r25, Y+22	; 0x16
    1db8:	86 89       	ldd	r24, Z+22	; 0x16
    1dba:	89 17       	cp	r24, r25
    1dbc:	20 f4       	brcc	.+8      	; 0x1dc6 <xTaskRemoveFromEventList+0x74>
    1dbe:	81 e0       	ldi	r24, 0x01	; 1
    1dc0:	80 93 d7 02 	sts	0x02D7, r24	; 0x8002d7 <xYieldPending>
    1dc4:	01 c0       	rjmp	.+2      	; 0x1dc8 <xTaskRemoveFromEventList+0x76>
    1dc6:	80 e0       	ldi	r24, 0x00	; 0
    1dc8:	df 91       	pop	r29
    1dca:	cf 91       	pop	r28
    1dcc:	1f 91       	pop	r17
    1dce:	0f 91       	pop	r16
    1dd0:	08 95       	ret

00001dd2 <vTaskInternalSetTimeOutState>:
    1dd2:	20 91 d6 02 	lds	r18, 0x02D6	; 0x8002d6 <xNumOfOverflows>
    1dd6:	fc 01       	movw	r30, r24
    1dd8:	20 83       	st	Z, r18
    1dda:	20 91 dc 02 	lds	r18, 0x02DC	; 0x8002dc <xTickCount>
    1dde:	30 91 dd 02 	lds	r19, 0x02DD	; 0x8002dd <xTickCount+0x1>
    1de2:	32 83       	std	Z+2, r19	; 0x02
    1de4:	21 83       	std	Z+1, r18	; 0x01
    1de6:	08 95       	ret

00001de8 <xTaskCheckForTimeOut>:
    1de8:	cf 93       	push	r28
    1dea:	df 93       	push	r29
    1dec:	0f b6       	in	r0, 0x3f	; 63
    1dee:	f8 94       	cli
    1df0:	0f 92       	push	r0
    1df2:	40 91 dc 02 	lds	r20, 0x02DC	; 0x8002dc <xTickCount>
    1df6:	50 91 dd 02 	lds	r21, 0x02DD	; 0x8002dd <xTickCount+0x1>
    1dfa:	db 01       	movw	r26, r22
    1dfc:	2d 91       	ld	r18, X+
    1dfe:	3c 91       	ld	r19, X
    1e00:	2f 3f       	cpi	r18, 0xFF	; 255
    1e02:	bf ef       	ldi	r27, 0xFF	; 255
    1e04:	3b 07       	cpc	r19, r27
    1e06:	d9 f0       	breq	.+54     	; 0x1e3e <xTaskCheckForTimeOut+0x56>
    1e08:	ec 01       	movw	r28, r24
    1e0a:	e9 81       	ldd	r30, Y+1	; 0x01
    1e0c:	fa 81       	ldd	r31, Y+2	; 0x02
    1e0e:	a0 91 d6 02 	lds	r26, 0x02D6	; 0x8002d6 <xNumOfOverflows>
    1e12:	b8 81       	ld	r27, Y
    1e14:	ba 17       	cp	r27, r26
    1e16:	41 f0       	breq	.+16     	; 0x1e28 <xTaskCheckForTimeOut+0x40>
    1e18:	4e 17       	cp	r20, r30
    1e1a:	5f 07       	cpc	r21, r31
    1e1c:	28 f0       	brcs	.+10     	; 0x1e28 <xTaskCheckForTimeOut+0x40>
    1e1e:	fb 01       	movw	r30, r22
    1e20:	11 82       	std	Z+1, r1	; 0x01
    1e22:	10 82       	st	Z, r1
    1e24:	81 e0       	ldi	r24, 0x01	; 1
    1e26:	0c c0       	rjmp	.+24     	; 0x1e40 <xTaskCheckForTimeOut+0x58>
    1e28:	4e 1b       	sub	r20, r30
    1e2a:	5f 0b       	sbc	r21, r31
    1e2c:	42 17       	cp	r20, r18
    1e2e:	53 07       	cpc	r21, r19
    1e30:	b0 f7       	brcc	.-20     	; 0x1e1e <xTaskCheckForTimeOut+0x36>
    1e32:	fb 01       	movw	r30, r22
    1e34:	24 1b       	sub	r18, r20
    1e36:	35 0b       	sbc	r19, r21
    1e38:	31 83       	std	Z+1, r19	; 0x01
    1e3a:	20 83       	st	Z, r18
    1e3c:	ca df       	rcall	.-108    	; 0x1dd2 <vTaskInternalSetTimeOutState>
    1e3e:	80 e0       	ldi	r24, 0x00	; 0
    1e40:	0f 90       	pop	r0
    1e42:	0f be       	out	0x3f, r0	; 63
    1e44:	df 91       	pop	r29
    1e46:	cf 91       	pop	r28
    1e48:	08 95       	ret

00001e4a <vTaskMissedYield>:
    1e4a:	81 e0       	ldi	r24, 0x01	; 1
    1e4c:	80 93 d7 02 	sts	0x02D7, r24	; 0x8002d7 <xYieldPending>
    1e50:	08 95       	ret

00001e52 <xTaskPriorityInherit>:
    1e52:	0f 93       	push	r16
    1e54:	1f 93       	push	r17
    1e56:	cf 93       	push	r28
    1e58:	df 93       	push	r29
    1e5a:	fc 01       	movw	r30, r24
    1e5c:	89 2b       	or	r24, r25
    1e5e:	09 f4       	brne	.+2      	; 0x1e62 <xTaskPriorityInherit+0x10>
    1e60:	55 c0       	rjmp	.+170    	; 0x1f0c <xTaskPriorityInherit+0xba>
    1e62:	86 89       	ldd	r24, Z+22	; 0x16
    1e64:	a0 91 35 03 	lds	r26, 0x0335	; 0x800335 <pxCurrentTCB>
    1e68:	b0 91 36 03 	lds	r27, 0x0336	; 0x800336 <pxCurrentTCB+0x1>
    1e6c:	56 96       	adiw	r26, 0x16	; 22
    1e6e:	9c 91       	ld	r25, X
    1e70:	89 17       	cp	r24, r25
    1e72:	08 f0       	brcs	.+2      	; 0x1e76 <xTaskPriorityInherit+0x24>
    1e74:	41 c0       	rjmp	.+130    	; 0x1ef8 <xTaskPriorityInherit+0xa6>
    1e76:	24 85       	ldd	r18, Z+12	; 0x0c
    1e78:	35 85       	ldd	r19, Z+13	; 0x0d
    1e7a:	37 fd       	sbrc	r19, 7
    1e7c:	0c c0       	rjmp	.+24     	; 0x1e96 <xTaskPriorityInherit+0x44>
    1e7e:	a0 91 35 03 	lds	r26, 0x0335	; 0x800335 <pxCurrentTCB>
    1e82:	b0 91 36 03 	lds	r27, 0x0336	; 0x800336 <pxCurrentTCB+0x1>
    1e86:	56 96       	adiw	r26, 0x16	; 22
    1e88:	9c 91       	ld	r25, X
    1e8a:	24 e0       	ldi	r18, 0x04	; 4
    1e8c:	30 e0       	ldi	r19, 0x00	; 0
    1e8e:	29 1b       	sub	r18, r25
    1e90:	31 09       	sbc	r19, r1
    1e92:	35 87       	std	Z+13, r19	; 0x0d
    1e94:	24 87       	std	Z+12, r18	; 0x0c
    1e96:	29 e0       	ldi	r18, 0x09	; 9
    1e98:	82 9f       	mul	r24, r18
    1e9a:	c0 01       	movw	r24, r0
    1e9c:	11 24       	eor	r1, r1
    1e9e:	8f 5e       	subi	r24, 0xEF	; 239
    1ea0:	9c 4f       	sbci	r25, 0xFC	; 252
    1ea2:	22 85       	ldd	r18, Z+10	; 0x0a
    1ea4:	33 85       	ldd	r19, Z+11	; 0x0b
    1ea6:	28 17       	cp	r18, r24
    1ea8:	39 07       	cpc	r19, r25
    1eaa:	e9 f4       	brne	.+58     	; 0x1ee6 <xTaskPriorityInherit+0x94>
    1eac:	8f 01       	movw	r16, r30
    1eae:	ef 01       	movw	r28, r30
    1eb0:	22 96       	adiw	r28, 0x02	; 2
    1eb2:	ce 01       	movw	r24, r28
    1eb4:	0e 94 ac 06 	call	0xd58	; 0xd58 <uxListRemove>
    1eb8:	e0 91 35 03 	lds	r30, 0x0335	; 0x800335 <pxCurrentTCB>
    1ebc:	f0 91 36 03 	lds	r31, 0x0336	; 0x800336 <pxCurrentTCB+0x1>
    1ec0:	86 89       	ldd	r24, Z+22	; 0x16
    1ec2:	f8 01       	movw	r30, r16
    1ec4:	86 8b       	std	Z+22, r24	; 0x16
    1ec6:	90 91 db 02 	lds	r25, 0x02DB	; 0x8002db <uxTopReadyPriority>
    1eca:	98 17       	cp	r25, r24
    1ecc:	10 f4       	brcc	.+4      	; 0x1ed2 <xTaskPriorityInherit+0x80>
    1ece:	80 93 db 02 	sts	0x02DB, r24	; 0x8002db <uxTopReadyPriority>
    1ed2:	f9 e0       	ldi	r31, 0x09	; 9
    1ed4:	8f 9f       	mul	r24, r31
    1ed6:	c0 01       	movw	r24, r0
    1ed8:	11 24       	eor	r1, r1
    1eda:	be 01       	movw	r22, r28
    1edc:	8f 5e       	subi	r24, 0xEF	; 239
    1ede:	9c 4f       	sbci	r25, 0xFC	; 252
    1ee0:	0e 94 53 06 	call	0xca6	; 0xca6 <vListInsertEnd>
    1ee4:	07 c0       	rjmp	.+14     	; 0x1ef4 <xTaskPriorityInherit+0xa2>
    1ee6:	a0 91 35 03 	lds	r26, 0x0335	; 0x800335 <pxCurrentTCB>
    1eea:	b0 91 36 03 	lds	r27, 0x0336	; 0x800336 <pxCurrentTCB+0x1>
    1eee:	56 96       	adiw	r26, 0x16	; 22
    1ef0:	8c 91       	ld	r24, X
    1ef2:	86 8b       	std	Z+22, r24	; 0x16
    1ef4:	81 e0       	ldi	r24, 0x01	; 1
    1ef6:	0b c0       	rjmp	.+22     	; 0x1f0e <xTaskPriorityInherit+0xbc>
    1ef8:	a0 91 35 03 	lds	r26, 0x0335	; 0x800335 <pxCurrentTCB>
    1efc:	b0 91 36 03 	lds	r27, 0x0336	; 0x800336 <pxCurrentTCB+0x1>
    1f00:	81 e0       	ldi	r24, 0x01	; 1
    1f02:	21 a1       	ldd	r18, Z+33	; 0x21
    1f04:	56 96       	adiw	r26, 0x16	; 22
    1f06:	9c 91       	ld	r25, X
    1f08:	29 17       	cp	r18, r25
    1f0a:	08 f0       	brcs	.+2      	; 0x1f0e <xTaskPriorityInherit+0xbc>
    1f0c:	80 e0       	ldi	r24, 0x00	; 0
    1f0e:	df 91       	pop	r29
    1f10:	cf 91       	pop	r28
    1f12:	1f 91       	pop	r17
    1f14:	0f 91       	pop	r16
    1f16:	08 95       	ret

00001f18 <xTaskPriorityDisinherit>:
    1f18:	0f 93       	push	r16
    1f1a:	1f 93       	push	r17
    1f1c:	cf 93       	push	r28
    1f1e:	df 93       	push	r29
    1f20:	fc 01       	movw	r30, r24
    1f22:	89 2b       	or	r24, r25
    1f24:	11 f4       	brne	.+4      	; 0x1f2a <xTaskPriorityDisinherit+0x12>
    1f26:	80 e0       	ldi	r24, 0x00	; 0
    1f28:	2c c0       	rjmp	.+88     	; 0x1f82 <xTaskPriorityDisinherit+0x6a>
    1f2a:	82 a1       	ldd	r24, Z+34	; 0x22
    1f2c:	81 50       	subi	r24, 0x01	; 1
    1f2e:	82 a3       	std	Z+34, r24	; 0x22
    1f30:	26 89       	ldd	r18, Z+22	; 0x16
    1f32:	91 a1       	ldd	r25, Z+33	; 0x21
    1f34:	29 17       	cp	r18, r25
    1f36:	b9 f3       	breq	.-18     	; 0x1f26 <xTaskPriorityDisinherit+0xe>
    1f38:	81 11       	cpse	r24, r1
    1f3a:	f5 cf       	rjmp	.-22     	; 0x1f26 <xTaskPriorityDisinherit+0xe>
    1f3c:	ef 01       	movw	r28, r30
    1f3e:	8f 01       	movw	r16, r30
    1f40:	0e 5f       	subi	r16, 0xFE	; 254
    1f42:	1f 4f       	sbci	r17, 0xFF	; 255
    1f44:	c8 01       	movw	r24, r16
    1f46:	0e 94 ac 06 	call	0xd58	; 0xd58 <uxListRemove>
    1f4a:	89 a1       	ldd	r24, Y+33	; 0x21
    1f4c:	8e 8b       	std	Y+22, r24	; 0x16
    1f4e:	48 2f       	mov	r20, r24
    1f50:	50 e0       	ldi	r21, 0x00	; 0
    1f52:	24 e0       	ldi	r18, 0x04	; 4
    1f54:	30 e0       	ldi	r19, 0x00	; 0
    1f56:	24 1b       	sub	r18, r20
    1f58:	35 0b       	sbc	r19, r21
    1f5a:	3d 87       	std	Y+13, r19	; 0x0d
    1f5c:	2c 87       	std	Y+12, r18	; 0x0c
    1f5e:	90 91 db 02 	lds	r25, 0x02DB	; 0x8002db <uxTopReadyPriority>
    1f62:	98 17       	cp	r25, r24
    1f64:	10 f4       	brcc	.+4      	; 0x1f6a <xTaskPriorityDisinherit+0x52>
    1f66:	80 93 db 02 	sts	0x02DB, r24	; 0x8002db <uxTopReadyPriority>
    1f6a:	29 e0       	ldi	r18, 0x09	; 9
    1f6c:	24 9f       	mul	r18, r20
    1f6e:	c0 01       	movw	r24, r0
    1f70:	25 9f       	mul	r18, r21
    1f72:	90 0d       	add	r25, r0
    1f74:	11 24       	eor	r1, r1
    1f76:	b8 01       	movw	r22, r16
    1f78:	8f 5e       	subi	r24, 0xEF	; 239
    1f7a:	9c 4f       	sbci	r25, 0xFC	; 252
    1f7c:	0e 94 53 06 	call	0xca6	; 0xca6 <vListInsertEnd>
    1f80:	81 e0       	ldi	r24, 0x01	; 1
    1f82:	df 91       	pop	r29
    1f84:	cf 91       	pop	r28
    1f86:	1f 91       	pop	r17
    1f88:	0f 91       	pop	r16
    1f8a:	08 95       	ret

00001f8c <vTaskPriorityDisinheritAfterTimeout>:
    1f8c:	0f 93       	push	r16
    1f8e:	1f 93       	push	r17
    1f90:	cf 93       	push	r28
    1f92:	df 93       	push	r29
    1f94:	fc 01       	movw	r30, r24
    1f96:	89 2b       	or	r24, r25
    1f98:	d9 f1       	breq	.+118    	; 0x2010 <__DATA_REGION_LENGTH__+0x10>
    1f9a:	91 a1       	ldd	r25, Z+33	; 0x21
    1f9c:	96 17       	cp	r25, r22
    1f9e:	08 f4       	brcc	.+2      	; 0x1fa2 <vTaskPriorityDisinheritAfterTimeout+0x16>
    1fa0:	96 2f       	mov	r25, r22
    1fa2:	86 89       	ldd	r24, Z+22	; 0x16
    1fa4:	89 17       	cp	r24, r25
    1fa6:	a1 f1       	breq	.+104    	; 0x2010 <__DATA_REGION_LENGTH__+0x10>
    1fa8:	22 a1       	ldd	r18, Z+34	; 0x22
    1faa:	21 30       	cpi	r18, 0x01	; 1
    1fac:	89 f5       	brne	.+98     	; 0x2010 <__DATA_REGION_LENGTH__+0x10>
    1fae:	96 8b       	std	Z+22, r25	; 0x16
    1fb0:	24 85       	ldd	r18, Z+12	; 0x0c
    1fb2:	35 85       	ldd	r19, Z+13	; 0x0d
    1fb4:	37 fd       	sbrc	r19, 7
    1fb6:	06 c0       	rjmp	.+12     	; 0x1fc4 <vTaskPriorityDisinheritAfterTimeout+0x38>
    1fb8:	24 e0       	ldi	r18, 0x04	; 4
    1fba:	30 e0       	ldi	r19, 0x00	; 0
    1fbc:	29 1b       	sub	r18, r25
    1fbe:	31 09       	sbc	r19, r1
    1fc0:	35 87       	std	Z+13, r19	; 0x0d
    1fc2:	24 87       	std	Z+12, r18	; 0x0c
    1fc4:	29 e0       	ldi	r18, 0x09	; 9
    1fc6:	82 9f       	mul	r24, r18
    1fc8:	c0 01       	movw	r24, r0
    1fca:	11 24       	eor	r1, r1
    1fcc:	8f 5e       	subi	r24, 0xEF	; 239
    1fce:	9c 4f       	sbci	r25, 0xFC	; 252
    1fd0:	22 85       	ldd	r18, Z+10	; 0x0a
    1fd2:	33 85       	ldd	r19, Z+11	; 0x0b
    1fd4:	28 17       	cp	r18, r24
    1fd6:	39 07       	cpc	r19, r25
    1fd8:	d9 f4       	brne	.+54     	; 0x2010 <__DATA_REGION_LENGTH__+0x10>
    1fda:	ef 01       	movw	r28, r30
    1fdc:	8f 01       	movw	r16, r30
    1fde:	0e 5f       	subi	r16, 0xFE	; 254
    1fe0:	1f 4f       	sbci	r17, 0xFF	; 255
    1fe2:	c8 01       	movw	r24, r16
    1fe4:	0e 94 ac 06 	call	0xd58	; 0xd58 <uxListRemove>
    1fe8:	8e 89       	ldd	r24, Y+22	; 0x16
    1fea:	90 91 db 02 	lds	r25, 0x02DB	; 0x8002db <uxTopReadyPriority>
    1fee:	98 17       	cp	r25, r24
    1ff0:	10 f4       	brcc	.+4      	; 0x1ff6 <vTaskPriorityDisinheritAfterTimeout+0x6a>
    1ff2:	80 93 db 02 	sts	0x02DB, r24	; 0x8002db <uxTopReadyPriority>
    1ff6:	29 e0       	ldi	r18, 0x09	; 9
    1ff8:	82 9f       	mul	r24, r18
    1ffa:	c0 01       	movw	r24, r0
    1ffc:	11 24       	eor	r1, r1
    1ffe:	b8 01       	movw	r22, r16
    2000:	8f 5e       	subi	r24, 0xEF	; 239
    2002:	9c 4f       	sbci	r25, 0xFC	; 252
    2004:	df 91       	pop	r29
    2006:	cf 91       	pop	r28
    2008:	1f 91       	pop	r17
    200a:	0f 91       	pop	r16
    200c:	0c 94 53 06 	jmp	0xca6	; 0xca6 <vListInsertEnd>
    2010:	df 91       	pop	r29
    2012:	cf 91       	pop	r28
    2014:	1f 91       	pop	r17
    2016:	0f 91       	pop	r16
    2018:	08 95       	ret

0000201a <pvTaskIncrementMutexHeldCount>:
    201a:	80 91 35 03 	lds	r24, 0x0335	; 0x800335 <pxCurrentTCB>
    201e:	90 91 36 03 	lds	r25, 0x0336	; 0x800336 <pxCurrentTCB+0x1>
    2022:	89 2b       	or	r24, r25
    2024:	39 f0       	breq	.+14     	; 0x2034 <pvTaskIncrementMutexHeldCount+0x1a>
    2026:	e0 91 35 03 	lds	r30, 0x0335	; 0x800335 <pxCurrentTCB>
    202a:	f0 91 36 03 	lds	r31, 0x0336	; 0x800336 <pxCurrentTCB+0x1>
    202e:	82 a1       	ldd	r24, Z+34	; 0x22
    2030:	8f 5f       	subi	r24, 0xFF	; 255
    2032:	82 a3       	std	Z+34, r24	; 0x22
    2034:	80 91 35 03 	lds	r24, 0x0335	; 0x800335 <pxCurrentTCB>
    2038:	90 91 36 03 	lds	r25, 0x0336	; 0x800336 <pxCurrentTCB+0x1>
    203c:	08 95       	ret

0000203e <_GLOBAL__sub_I_napajalnik>:
    203e:	ec e3       	ldi	r30, 0x3C	; 60
    2040:	f3 e0       	ldi	r31, 0x03	; 3
    2042:	8b e4       	ldi	r24, 0x4B	; 75
    2044:	86 83       	std	Z+6, r24	; 0x06
    2046:	15 82       	std	Z+5, r1	; 0x05
    2048:	14 82       	std	Z+4, r1	; 0x04
    204a:	10 86       	std	Z+8, r1	; 0x08
    204c:	17 82       	std	Z+7, r1	; 0x07
    204e:	08 95       	ret

00002050 <_ZN8castimer8vrednostEv>:
    2050:	0f 93       	push	r16
    2052:	1f 93       	push	r17
    2054:	fc 01       	movw	r30, r24
    2056:	20 81       	ld	r18, Z
    2058:	80 91 48 02 	lds	r24, 0x0248	; 0x800248 <Hardware+0xb>
    205c:	90 91 49 02 	lds	r25, 0x0249	; 0x800249 <Hardware+0xc>
    2060:	a0 91 4a 02 	lds	r26, 0x024A	; 0x80024a <Hardware+0xd>
    2064:	b0 91 4b 02 	lds	r27, 0x024B	; 0x80024b <Hardware+0xe>
    2068:	21 11       	cpse	r18, r1
    206a:	0a c0       	rjmp	.+20     	; 0x2080 <_ZN8castimer8vrednostEv+0x30>
    206c:	81 83       	std	Z+1, r24	; 0x01
    206e:	92 83       	std	Z+2, r25	; 0x02
    2070:	a3 83       	std	Z+3, r26	; 0x03
    2072:	b4 83       	std	Z+4, r27	; 0x04
    2074:	81 e0       	ldi	r24, 0x01	; 1
    2076:	80 83       	st	Z, r24
    2078:	60 e0       	ldi	r22, 0x00	; 0
    207a:	70 e0       	ldi	r23, 0x00	; 0
    207c:	cb 01       	movw	r24, r22
    207e:	0a c0       	rjmp	.+20     	; 0x2094 <_ZN8castimer8vrednostEv+0x44>
    2080:	01 81       	ldd	r16, Z+1	; 0x01
    2082:	12 81       	ldd	r17, Z+2	; 0x02
    2084:	23 81       	ldd	r18, Z+3	; 0x03
    2086:	34 81       	ldd	r19, Z+4	; 0x04
    2088:	bc 01       	movw	r22, r24
    208a:	cd 01       	movw	r24, r26
    208c:	60 1b       	sub	r22, r16
    208e:	71 0b       	sbc	r23, r17
    2090:	82 0b       	sbc	r24, r18
    2092:	93 0b       	sbc	r25, r19
    2094:	1f 91       	pop	r17
    2096:	0f 91       	pop	r16
    2098:	08 95       	ret

0000209a <_ZN8castimer9ponastaviEv>:
    209a:	fc 01       	movw	r30, r24
    209c:	10 82       	st	Z, r1
    209e:	08 95       	ret

000020a0 <_ZN8EEPROM_t4pisiEhj>:
    20a0:	f9 99       	sbic	0x1f, 1	; 31
    20a2:	fe cf       	rjmp	.-4      	; 0x20a0 <_ZN8EEPROM_t4pisiEhj>
    20a4:	52 bd       	out	0x22, r21	; 34
    20a6:	41 bd       	out	0x21, r20	; 33
    20a8:	60 bd       	out	0x20, r22	; 32
    20aa:	fa 9a       	sbi	0x1f, 2	; 31
    20ac:	f9 9a       	sbi	0x1f, 1	; 31
    20ae:	08 95       	ret

000020b0 <_ZN8EEPROM_t4beriEj>:
    20b0:	f9 99       	sbic	0x1f, 1	; 31
    20b2:	fe cf       	rjmp	.-4      	; 0x20b0 <_ZN8EEPROM_t4beriEj>
    20b4:	72 bd       	out	0x22, r23	; 34
    20b6:	61 bd       	out	0x21, r22	; 33
    20b8:	f8 9a       	sbi	0x1f, 0	; 31
    20ba:	80 b5       	in	r24, 0x20	; 32
    20bc:	08 95       	ret

000020be <_Z6pwmOFFhc>:
    20be:	62 34       	cpi	r22, 0x42	; 66
    20c0:	69 f5       	brne	.+90     	; 0x211c <_Z6pwmOFFhc+0x5e>
    20c2:	85 30       	cpi	r24, 0x05	; 5
    20c4:	91 f0       	breq	.+36     	; 0x20ea <_Z6pwmOFFhc+0x2c>
    20c6:	86 30       	cpi	r24, 0x06	; 6
    20c8:	d1 f0       	breq	.+52     	; 0x20fe <_Z6pwmOFFhc+0x40>
    20ca:	84 30       	cpi	r24, 0x04	; 4
    20cc:	39 f5       	brne	.+78     	; 0x211c <_Z6pwmOFFhc+0x5e>
    20ce:	80 91 b0 00 	lds	r24, 0x00B0	; 0x8000b0 <__TEXT_REGION_LENGTH__+0x7c00b0>
    20d2:	8f 77       	andi	r24, 0x7F	; 127
    20d4:	80 93 b0 00 	sts	0x00B0, r24	; 0x8000b0 <__TEXT_REGION_LENGTH__+0x7c00b0>
    20d8:	80 91 b0 00 	lds	r24, 0x00B0	; 0x8000b0 <__TEXT_REGION_LENGTH__+0x7c00b0>
    20dc:	85 fd       	sbrc	r24, 5
    20de:	1e c0       	rjmp	.+60     	; 0x211c <_Z6pwmOFFhc+0x5e>
    20e0:	10 92 b1 00 	sts	0x00B1, r1	; 0x8000b1 <__TEXT_REGION_LENGTH__+0x7c00b1>
    20e4:	10 92 b2 00 	sts	0x00B2, r1	; 0x8000b2 <__TEXT_REGION_LENGTH__+0x7c00b2>
    20e8:	08 95       	ret
    20ea:	80 91 80 00 	lds	r24, 0x0080	; 0x800080 <__TEXT_REGION_LENGTH__+0x7c0080>
    20ee:	8f 77       	andi	r24, 0x7F	; 127
    20f0:	80 93 80 00 	sts	0x0080, r24	; 0x800080 <__TEXT_REGION_LENGTH__+0x7c0080>
    20f4:	80 91 80 00 	lds	r24, 0x0080	; 0x800080 <__TEXT_REGION_LENGTH__+0x7c0080>
    20f8:	85 fd       	sbrc	r24, 5
    20fa:	10 c0       	rjmp	.+32     	; 0x211c <_Z6pwmOFFhc+0x5e>
    20fc:	09 c0       	rjmp	.+18     	; 0x2110 <_Z6pwmOFFhc+0x52>
    20fe:	80 91 80 00 	lds	r24, 0x0080	; 0x800080 <__TEXT_REGION_LENGTH__+0x7c0080>
    2102:	8f 7d       	andi	r24, 0xDF	; 223
    2104:	80 93 80 00 	sts	0x0080, r24	; 0x800080 <__TEXT_REGION_LENGTH__+0x7c0080>
    2108:	80 91 80 00 	lds	r24, 0x0080	; 0x800080 <__TEXT_REGION_LENGTH__+0x7c0080>
    210c:	87 fd       	sbrc	r24, 7
    210e:	06 c0       	rjmp	.+12     	; 0x211c <_Z6pwmOFFhc+0x5e>
    2110:	10 92 81 00 	sts	0x0081, r1	; 0x800081 <__TEXT_REGION_LENGTH__+0x7c0081>
    2114:	10 92 85 00 	sts	0x0085, r1	; 0x800085 <__TEXT_REGION_LENGTH__+0x7c0085>
    2118:	10 92 84 00 	sts	0x0084, r1	; 0x800084 <__TEXT_REGION_LENGTH__+0x7c0084>
    211c:	08 95       	ret

0000211e <_Z11writeOUTPUThcb>:
    211e:	1f 93       	push	r17
    2120:	cf 93       	push	r28
    2122:	df 93       	push	r29
    2124:	c8 2f       	mov	r28, r24
    2126:	d6 2f       	mov	r29, r22
    2128:	14 2f       	mov	r17, r20
    212a:	c9 df       	rcall	.-110    	; 0x20be <_Z6pwmOFFhc>
    212c:	d4 34       	cpi	r29, 0x44	; 68
    212e:	99 f0       	breq	.+38     	; 0x2156 <_Z11writeOUTPUThcb+0x38>
    2130:	d8 34       	cpi	r29, 0x48	; 72
    2132:	01 f1       	breq	.+64     	; 0x2174 <_Z11writeOUTPUThcb+0x56>
    2134:	d2 34       	cpi	r29, 0x42	; 66
    2136:	71 f5       	brne	.+92     	; 0x2194 <_Z11writeOUTPUThcb+0x76>
    2138:	25 b1       	in	r18, 0x05	; 5
    213a:	81 e0       	ldi	r24, 0x01	; 1
    213c:	90 e0       	ldi	r25, 0x00	; 0
    213e:	01 c0       	rjmp	.+2      	; 0x2142 <_Z11writeOUTPUThcb+0x24>
    2140:	88 0f       	add	r24, r24
    2142:	ca 95       	dec	r28
    2144:	ea f7       	brpl	.-6      	; 0x2140 <_Z11writeOUTPUThcb+0x22>
    2146:	11 23       	and	r17, r17
    2148:	11 f0       	breq	.+4      	; 0x214e <_Z11writeOUTPUThcb+0x30>
    214a:	82 2b       	or	r24, r18
    214c:	02 c0       	rjmp	.+4      	; 0x2152 <_Z11writeOUTPUThcb+0x34>
    214e:	80 95       	com	r24
    2150:	82 23       	and	r24, r18
    2152:	85 b9       	out	0x05, r24	; 5
    2154:	1f c0       	rjmp	.+62     	; 0x2194 <_Z11writeOUTPUThcb+0x76>
    2156:	2b b1       	in	r18, 0x0b	; 11
    2158:	81 e0       	ldi	r24, 0x01	; 1
    215a:	90 e0       	ldi	r25, 0x00	; 0
    215c:	01 c0       	rjmp	.+2      	; 0x2160 <_Z11writeOUTPUThcb+0x42>
    215e:	88 0f       	add	r24, r24
    2160:	ca 95       	dec	r28
    2162:	ea f7       	brpl	.-6      	; 0x215e <_Z11writeOUTPUThcb+0x40>
    2164:	11 23       	and	r17, r17
    2166:	11 f0       	breq	.+4      	; 0x216c <_Z11writeOUTPUThcb+0x4e>
    2168:	82 2b       	or	r24, r18
    216a:	02 c0       	rjmp	.+4      	; 0x2170 <_Z11writeOUTPUThcb+0x52>
    216c:	80 95       	com	r24
    216e:	82 23       	and	r24, r18
    2170:	8b b9       	out	0x0b, r24	; 11
    2172:	10 c0       	rjmp	.+32     	; 0x2194 <_Z11writeOUTPUThcb+0x76>
    2174:	20 91 02 01 	lds	r18, 0x0102	; 0x800102 <__TEXT_REGION_LENGTH__+0x7c0102>
    2178:	81 e0       	ldi	r24, 0x01	; 1
    217a:	90 e0       	ldi	r25, 0x00	; 0
    217c:	01 c0       	rjmp	.+2      	; 0x2180 <_Z11writeOUTPUThcb+0x62>
    217e:	88 0f       	add	r24, r24
    2180:	ca 95       	dec	r28
    2182:	ea f7       	brpl	.-6      	; 0x217e <_Z11writeOUTPUThcb+0x60>
    2184:	11 23       	and	r17, r17
    2186:	11 f0       	breq	.+4      	; 0x218c <_Z11writeOUTPUThcb+0x6e>
    2188:	82 2b       	or	r24, r18
    218a:	02 c0       	rjmp	.+4      	; 0x2190 <_Z11writeOUTPUThcb+0x72>
    218c:	80 95       	com	r24
    218e:	82 23       	and	r24, r18
    2190:	80 93 02 01 	sts	0x0102, r24	; 0x800102 <__TEXT_REGION_LENGTH__+0x7c0102>
    2194:	df 91       	pop	r29
    2196:	cf 91       	pop	r28
    2198:	1f 91       	pop	r17
    219a:	08 95       	ret

0000219c <_Z12toggleOUTPUThc>:
    219c:	cf 93       	push	r28
    219e:	df 93       	push	r29
    21a0:	c8 2f       	mov	r28, r24
    21a2:	d6 2f       	mov	r29, r22
    21a4:	8c df       	rcall	.-232    	; 0x20be <_Z6pwmOFFhc>
    21a6:	d4 34       	cpi	r29, 0x44	; 68
    21a8:	71 f0       	breq	.+28     	; 0x21c6 <_Z12toggleOUTPUThc+0x2a>
    21aa:	d8 34       	cpi	r29, 0x48	; 72
    21ac:	b1 f0       	breq	.+44     	; 0x21da <_Z12toggleOUTPUThc+0x3e>
    21ae:	d2 34       	cpi	r29, 0x42	; 66
    21b0:	f9 f4       	brne	.+62     	; 0x21f0 <_Z12toggleOUTPUThc+0x54>
    21b2:	25 b1       	in	r18, 0x05	; 5
    21b4:	81 e0       	ldi	r24, 0x01	; 1
    21b6:	90 e0       	ldi	r25, 0x00	; 0
    21b8:	01 c0       	rjmp	.+2      	; 0x21bc <_Z12toggleOUTPUThc+0x20>
    21ba:	88 0f       	add	r24, r24
    21bc:	ca 95       	dec	r28
    21be:	ea f7       	brpl	.-6      	; 0x21ba <_Z12toggleOUTPUThc+0x1e>
    21c0:	82 27       	eor	r24, r18
    21c2:	85 b9       	out	0x05, r24	; 5
    21c4:	15 c0       	rjmp	.+42     	; 0x21f0 <_Z12toggleOUTPUThc+0x54>
    21c6:	2b b1       	in	r18, 0x0b	; 11
    21c8:	81 e0       	ldi	r24, 0x01	; 1
    21ca:	90 e0       	ldi	r25, 0x00	; 0
    21cc:	01 c0       	rjmp	.+2      	; 0x21d0 <_Z12toggleOUTPUThc+0x34>
    21ce:	88 0f       	add	r24, r24
    21d0:	ca 95       	dec	r28
    21d2:	ea f7       	brpl	.-6      	; 0x21ce <_Z12toggleOUTPUThc+0x32>
    21d4:	82 27       	eor	r24, r18
    21d6:	8b b9       	out	0x0b, r24	; 11
    21d8:	0b c0       	rjmp	.+22     	; 0x21f0 <_Z12toggleOUTPUThc+0x54>
    21da:	20 91 02 01 	lds	r18, 0x0102	; 0x800102 <__TEXT_REGION_LENGTH__+0x7c0102>
    21de:	81 e0       	ldi	r24, 0x01	; 1
    21e0:	90 e0       	ldi	r25, 0x00	; 0
    21e2:	01 c0       	rjmp	.+2      	; 0x21e6 <_Z12toggleOUTPUThc+0x4a>
    21e4:	88 0f       	add	r24, r24
    21e6:	ca 95       	dec	r28
    21e8:	ea f7       	brpl	.-6      	; 0x21e4 <_Z12toggleOUTPUThc+0x48>
    21ea:	82 27       	eor	r24, r18
    21ec:	80 93 02 01 	sts	0x0102, r24	; 0x800102 <__TEXT_REGION_LENGTH__+0x7c0102>
    21f0:	df 91       	pop	r29
    21f2:	cf 91       	pop	r28
    21f4:	08 95       	ret

000021f6 <_Z10readANALOGh>:
    21f6:	0f b6       	in	r0, 0x3f	; 63
    21f8:	f8 94       	cli
    21fa:	0f 92       	push	r0
    21fc:	98 2f       	mov	r25, r24
    21fe:	90 64       	ori	r25, 0x40	; 64
    2200:	90 93 7c 00 	sts	0x007C, r25	; 0x80007c <__TEXT_REGION_LENGTH__+0x7c007c>
    2204:	90 91 7a 00 	lds	r25, 0x007A	; 0x80007a <__TEXT_REGION_LENGTH__+0x7c007a>
    2208:	90 64       	ori	r25, 0x40	; 64
    220a:	90 93 7a 00 	sts	0x007A, r25	; 0x80007a <__TEXT_REGION_LENGTH__+0x7c007a>
    220e:	90 91 7a 00 	lds	r25, 0x007A	; 0x80007a <__TEXT_REGION_LENGTH__+0x7c007a>
    2212:	96 fd       	sbrc	r25, 6
    2214:	fc cf       	rjmp	.-8      	; 0x220e <__stack+0xf>
    2216:	90 91 7c 00 	lds	r25, 0x007C	; 0x80007c <__TEXT_REGION_LENGTH__+0x7c007c>
    221a:	80 95       	com	r24
    221c:	89 23       	and	r24, r25
    221e:	80 93 7c 00 	sts	0x007C, r24	; 0x80007c <__TEXT_REGION_LENGTH__+0x7c007c>
    2222:	0f 90       	pop	r0
    2224:	0f be       	out	0x3f, r0	; 63
    2226:	80 91 78 00 	lds	r24, 0x0078	; 0x800078 <__TEXT_REGION_LENGTH__+0x7c0078>
    222a:	90 91 79 00 	lds	r25, 0x0079	; 0x800079 <__TEXT_REGION_LENGTH__+0x7c0079>
    222e:	08 95       	ret

00002230 <_Z8writePWMhch>:
    2230:	62 34       	cpi	r22, 0x42	; 66
    2232:	b1 f5       	brne	.+108    	; 0x22a0 <_Z8writePWMhch+0x70>
    2234:	94 b1       	in	r25, 0x04	; 4
    2236:	21 e0       	ldi	r18, 0x01	; 1
    2238:	30 e0       	ldi	r19, 0x00	; 0
    223a:	08 2e       	mov	r0, r24
    223c:	01 c0       	rjmp	.+2      	; 0x2240 <_Z8writePWMhch+0x10>
    223e:	22 0f       	add	r18, r18
    2240:	0a 94       	dec	r0
    2242:	ea f7       	brpl	.-6      	; 0x223e <_Z8writePWMhch+0xe>
    2244:	29 2b       	or	r18, r25
    2246:	24 b9       	out	0x04, r18	; 4
    2248:	85 30       	cpi	r24, 0x05	; 5
    224a:	79 f0       	breq	.+30     	; 0x226a <_Z8writePWMhch+0x3a>
    224c:	86 30       	cpi	r24, 0x06	; 6
    224e:	d9 f0       	breq	.+54     	; 0x2286 <_Z8writePWMhch+0x56>
    2250:	84 30       	cpi	r24, 0x04	; 4
    2252:	31 f5       	brne	.+76     	; 0x22a0 <_Z8writePWMhch+0x70>
    2254:	80 91 b0 00 	lds	r24, 0x00B0	; 0x8000b0 <__TEXT_REGION_LENGTH__+0x7c00b0>
    2258:	83 68       	ori	r24, 0x83	; 131
    225a:	80 93 b0 00 	sts	0x00B0, r24	; 0x8000b0 <__TEXT_REGION_LENGTH__+0x7c00b0>
    225e:	81 e0       	ldi	r24, 0x01	; 1
    2260:	80 93 b1 00 	sts	0x00B1, r24	; 0x8000b1 <__TEXT_REGION_LENGTH__+0x7c00b1>
    2264:	40 93 b3 00 	sts	0x00B3, r20	; 0x8000b3 <__TEXT_REGION_LENGTH__+0x7c00b3>
    2268:	08 95       	ret
    226a:	80 91 80 00 	lds	r24, 0x0080	; 0x800080 <__TEXT_REGION_LENGTH__+0x7c0080>
    226e:	81 68       	ori	r24, 0x81	; 129
    2270:	80 93 80 00 	sts	0x0080, r24	; 0x800080 <__TEXT_REGION_LENGTH__+0x7c0080>
    2274:	89 e0       	ldi	r24, 0x09	; 9
    2276:	80 93 81 00 	sts	0x0081, r24	; 0x800081 <__TEXT_REGION_LENGTH__+0x7c0081>
    227a:	50 e0       	ldi	r21, 0x00	; 0
    227c:	50 93 89 00 	sts	0x0089, r21	; 0x800089 <__TEXT_REGION_LENGTH__+0x7c0089>
    2280:	40 93 88 00 	sts	0x0088, r20	; 0x800088 <__TEXT_REGION_LENGTH__+0x7c0088>
    2284:	08 95       	ret
    2286:	80 91 80 00 	lds	r24, 0x0080	; 0x800080 <__TEXT_REGION_LENGTH__+0x7c0080>
    228a:	81 62       	ori	r24, 0x21	; 33
    228c:	80 93 80 00 	sts	0x0080, r24	; 0x800080 <__TEXT_REGION_LENGTH__+0x7c0080>
    2290:	89 e0       	ldi	r24, 0x09	; 9
    2292:	80 93 81 00 	sts	0x0081, r24	; 0x800081 <__TEXT_REGION_LENGTH__+0x7c0081>
    2296:	50 e0       	ldi	r21, 0x00	; 0
    2298:	50 93 8b 00 	sts	0x008B, r21	; 0x80008b <__TEXT_REGION_LENGTH__+0x7c008b>
    229c:	40 93 8a 00 	sts	0x008A, r20	; 0x80008a <__TEXT_REGION_LENGTH__+0x7c008a>
    22a0:	08 95       	ret

000022a2 <_ZN4VHOD8vrednostEv>:
    22a2:	fc 01       	movw	r30, r24
    22a4:	86 81       	ldd	r24, Z+6	; 0x06
    22a6:	84 34       	cpi	r24, 0x44	; 68
    22a8:	61 f0       	breq	.+24     	; 0x22c2 <_ZN4VHOD8vrednostEv+0x20>
    22aa:	20 f4       	brcc	.+8      	; 0x22b4 <_ZN4VHOD8vrednostEv+0x12>
    22ac:	82 34       	cpi	r24, 0x42	; 66
    22ae:	e9 f4       	brne	.+58     	; 0x22ea <_ZN4VHOD8vrednostEv+0x48>
    22b0:	23 b1       	in	r18, 0x03	; 3
    22b2:	0a c0       	rjmp	.+20     	; 0x22c8 <_ZN4VHOD8vrednostEv+0x26>
    22b4:	87 34       	cpi	r24, 0x47	; 71
    22b6:	39 f0       	breq	.+14     	; 0x22c6 <_ZN4VHOD8vrednostEv+0x24>
    22b8:	8b 34       	cpi	r24, 0x4B	; 75
    22ba:	b9 f4       	brne	.+46     	; 0x22ea <_ZN4VHOD8vrednostEv+0x48>
    22bc:	20 91 06 01 	lds	r18, 0x0106	; 0x800106 <__TEXT_REGION_LENGTH__+0x7c0106>
    22c0:	03 c0       	rjmp	.+6      	; 0x22c8 <_ZN4VHOD8vrednostEv+0x26>
    22c2:	29 b1       	in	r18, 0x09	; 9
    22c4:	01 c0       	rjmp	.+2      	; 0x22c8 <_ZN4VHOD8vrednostEv+0x26>
    22c6:	22 b3       	in	r18, 0x12	; 18
    22c8:	81 e0       	ldi	r24, 0x01	; 1
    22ca:	90 e0       	ldi	r25, 0x00	; 0
    22cc:	04 80       	ldd	r0, Z+4	; 0x04
    22ce:	02 c0       	rjmp	.+4      	; 0x22d4 <_ZN4VHOD8vrednostEv+0x32>
    22d0:	88 0f       	add	r24, r24
    22d2:	99 1f       	adc	r25, r25
    22d4:	0a 94       	dec	r0
    22d6:	e2 f7       	brpl	.-8      	; 0x22d0 <_ZN4VHOD8vrednostEv+0x2e>
    22d8:	30 e0       	ldi	r19, 0x00	; 0
    22da:	82 23       	and	r24, r18
    22dc:	93 23       	and	r25, r19
    22de:	21 e0       	ldi	r18, 0x01	; 1
    22e0:	18 16       	cp	r1, r24
    22e2:	19 06       	cpc	r1, r25
    22e4:	0c f0       	brlt	.+2      	; 0x22e8 <_ZN4VHOD8vrednostEv+0x46>
    22e6:	20 e0       	ldi	r18, 0x00	; 0
    22e8:	21 83       	std	Z+1, r18	; 0x01
    22ea:	87 81       	ldd	r24, Z+7	; 0x07
    22ec:	90 85       	ldd	r25, Z+8	; 0x08
    22ee:	89 2b       	or	r24, r25
    22f0:	21 f0       	breq	.+8      	; 0x22fa <_ZN4VHOD8vrednostEv+0x58>
    22f2:	91 81       	ldd	r25, Z+1	; 0x01
    22f4:	81 e0       	ldi	r24, 0x01	; 1
    22f6:	89 27       	eor	r24, r25
    22f8:	81 83       	std	Z+1, r24	; 0x01
    22fa:	81 81       	ldd	r24, Z+1	; 0x01
    22fc:	90 81       	ld	r25, Z
    22fe:	98 17       	cp	r25, r24
    2300:	41 f0       	breq	.+16     	; 0x2312 <_ZN4VHOD8vrednostEv+0x70>
    2302:	91 e0       	ldi	r25, 0x01	; 1
    2304:	88 23       	and	r24, r24
    2306:	19 f0       	breq	.+6      	; 0x230e <_ZN4VHOD8vrednostEv+0x6c>
    2308:	92 83       	std	Z+2, r25	; 0x02
    230a:	90 83       	st	Z, r25
    230c:	08 95       	ret
    230e:	93 83       	std	Z+3, r25	; 0x03
    2310:	10 82       	st	Z, r1
    2312:	08 95       	ret

00002314 <__vector_32>:
    2314:	1f 92       	push	r1
    2316:	0f 92       	push	r0
    2318:	0f b6       	in	r0, 0x3f	; 63
    231a:	0f 92       	push	r0
    231c:	11 24       	eor	r1, r1
    231e:	0b b6       	in	r0, 0x3b	; 59
    2320:	0f 92       	push	r0
    2322:	8f 93       	push	r24
    2324:	9f 93       	push	r25
    2326:	af 93       	push	r26
    2328:	bf 93       	push	r27
    232a:	ef 93       	push	r30
    232c:	ff 93       	push	r31
    232e:	ed e3       	ldi	r30, 0x3D	; 61
    2330:	f2 e0       	ldi	r31, 0x02	; 2
    2332:	83 85       	ldd	r24, Z+11	; 0x0b
    2334:	94 85       	ldd	r25, Z+12	; 0x0c
    2336:	a5 85       	ldd	r26, Z+13	; 0x0d
    2338:	b6 85       	ldd	r27, Z+14	; 0x0e
    233a:	01 96       	adiw	r24, 0x01	; 1
    233c:	a1 1d       	adc	r26, r1
    233e:	b1 1d       	adc	r27, r1
    2340:	83 87       	std	Z+11, r24	; 0x0b
    2342:	94 87       	std	Z+12, r25	; 0x0c
    2344:	a5 87       	std	Z+13, r26	; 0x0d
    2346:	b6 87       	std	Z+14, r27	; 0x0e
    2348:	ff 91       	pop	r31
    234a:	ef 91       	pop	r30
    234c:	bf 91       	pop	r27
    234e:	af 91       	pop	r26
    2350:	9f 91       	pop	r25
    2352:	8f 91       	pop	r24
    2354:	0f 90       	pop	r0
    2356:	0b be       	out	0x3b, r0	; 59
    2358:	0f 90       	pop	r0
    235a:	0f be       	out	0x3f, r0	; 63
    235c:	0f 90       	pop	r0
    235e:	1f 90       	pop	r1
    2360:	18 95       	reti

00002362 <_Z4initv>:
    2362:	ef 92       	push	r14
    2364:	ff 92       	push	r15
    2366:	0f 93       	push	r16
    2368:	81 e0       	ldi	r24, 0x01	; 1
    236a:	8d b9       	out	0x0d, r24	; 13
    236c:	88 e3       	ldi	r24, 0x38	; 56
    236e:	80 93 01 01 	sts	0x0101, r24	; 0x800101 <__TEXT_REGION_LENGTH__+0x7c0101>
    2372:	80 ef       	ldi	r24, 0xF0	; 240
    2374:	84 b9       	out	0x04, r24	; 4
    2376:	10 92 90 00 	sts	0x0090, r1	; 0x800090 <__TEXT_REGION_LENGTH__+0x7c0090>
    237a:	8b e0       	ldi	r24, 0x0B	; 11
    237c:	80 93 91 00 	sts	0x0091, r24	; 0x800091 <__TEXT_REGION_LENGTH__+0x7c0091>
    2380:	89 ef       	ldi	r24, 0xF9	; 249
    2382:	90 e0       	ldi	r25, 0x00	; 0
    2384:	90 93 99 00 	sts	0x0099, r25	; 0x800099 <__TEXT_REGION_LENGTH__+0x7c0099>
    2388:	80 93 98 00 	sts	0x0098, r24	; 0x800098 <__TEXT_REGION_LENGTH__+0x7c0098>
    238c:	82 e0       	ldi	r24, 0x02	; 2
    238e:	80 93 71 00 	sts	0x0071, r24	; 0x800071 <__TEXT_REGION_LENGTH__+0x7c0071>
    2392:	80 e4       	ldi	r24, 0x40	; 64
    2394:	80 93 7c 00 	sts	0x007C, r24	; 0x80007c <__TEXT_REGION_LENGTH__+0x7c007c>
    2398:	80 91 7a 00 	lds	r24, 0x007A	; 0x80007a <__TEXT_REGION_LENGTH__+0x7c007a>
    239c:	80 68       	ori	r24, 0x80	; 128
    239e:	80 93 7a 00 	sts	0x007A, r24	; 0x80007a <__TEXT_REGION_LENGTH__+0x7c007a>
    23a2:	80 91 7a 00 	lds	r24, 0x007A	; 0x80007a <__TEXT_REGION_LENGTH__+0x7c007a>
    23a6:	80 64       	ori	r24, 0x40	; 64
    23a8:	80 93 7a 00 	sts	0x007A, r24	; 0x80007a <__TEXT_REGION_LENGTH__+0x7c007a>
    23ac:	41 e0       	ldi	r20, 0x01	; 1
    23ae:	67 e4       	ldi	r22, 0x47	; 71
    23b0:	85 e0       	ldi	r24, 0x05	; 5
    23b2:	b5 de       	rcall	.-662    	; 0x211e <_Z11writeOUTPUThcb>
    23b4:	60 e0       	ldi	r22, 0x00	; 0
    23b6:	70 e0       	ldi	r23, 0x00	; 0
    23b8:	85 e4       	ldi	r24, 0x45	; 69
    23ba:	93 e0       	ldi	r25, 0x03	; 3
    23bc:	79 de       	rcall	.-782    	; 0x20b0 <_ZN8EEPROM_t4beriEj>
    23be:	90 91 43 02 	lds	r25, 0x0243	; 0x800243 <Hardware+0x6>
    23c2:	88 23       	and	r24, r24
    23c4:	11 f0       	breq	.+4      	; 0x23ca <_Z4initv+0x68>
    23c6:	94 60       	ori	r25, 0x04	; 4
    23c8:	01 c0       	rjmp	.+2      	; 0x23cc <_Z4initv+0x6a>
    23ca:	9b 7f       	andi	r25, 0xFB	; 251
    23cc:	90 93 43 02 	sts	0x0243, r25	; 0x800243 <Hardware+0x6>
    23d0:	81 e0       	ldi	r24, 0x01	; 1
    23d2:	0e 94 b5 09 	call	0x136a	; 0x136a <xQueueCreateMutex>
    23d6:	90 93 47 03 	sts	0x0347, r25	; 0x800347 <voltage_SEM+0x1>
    23da:	80 93 46 03 	sts	0x0346, r24	; 0x800346 <voltage_SEM>
    23de:	20 e0       	ldi	r18, 0x00	; 0
    23e0:	40 e0       	ldi	r20, 0x00	; 0
    23e2:	50 e0       	ldi	r21, 0x00	; 0
    23e4:	60 e0       	ldi	r22, 0x00	; 0
    23e6:	70 e0       	ldi	r23, 0x00	; 0
    23e8:	0e 94 1c 09 	call	0x1238	; 0x1238 <xQueueGenericSend>
    23ec:	80 e5       	ldi	r24, 0x50	; 80
    23ee:	e8 2e       	mov	r14, r24
    23f0:	83 e0       	ldi	r24, 0x03	; 3
    23f2:	f8 2e       	mov	r15, r24
    23f4:	01 e0       	ldi	r16, 0x01	; 1
    23f6:	20 e0       	ldi	r18, 0x00	; 0
    23f8:	30 e0       	ldi	r19, 0x00	; 0
    23fa:	40 e0       	ldi	r20, 0x00	; 0
    23fc:	51 e0       	ldi	r21, 0x01	; 1
    23fe:	6a e8       	ldi	r22, 0x8A	; 138
    2400:	72 e0       	ldi	r23, 0x02	; 2
    2402:	81 ef       	ldi	r24, 0xF1	; 241
    2404:	92 e1       	ldi	r25, 0x12	; 18
    2406:	e9 d8       	rcall	.-3630   	; 0x15da <xTaskCreate>
    2408:	9e e4       	ldi	r25, 0x4E	; 78
    240a:	e9 2e       	mov	r14, r25
    240c:	93 e0       	ldi	r25, 0x03	; 3
    240e:	f9 2e       	mov	r15, r25
    2410:	03 e0       	ldi	r16, 0x03	; 3
    2412:	20 e0       	ldi	r18, 0x00	; 0
    2414:	30 e0       	ldi	r19, 0x00	; 0
    2416:	40 e0       	ldi	r20, 0x00	; 0
    2418:	51 e0       	ldi	r21, 0x01	; 1
    241a:	60 e9       	ldi	r22, 0x90	; 144
    241c:	72 e0       	ldi	r23, 0x02	; 2
    241e:	88 e0       	ldi	r24, 0x08	; 8
    2420:	95 e0       	ldi	r25, 0x05	; 5
    2422:	db d8       	rcall	.-3658   	; 0x15da <xTaskCreate>
    2424:	2a e4       	ldi	r18, 0x4A	; 74
    2426:	e2 2e       	mov	r14, r18
    2428:	23 e0       	ldi	r18, 0x03	; 3
    242a:	f2 2e       	mov	r15, r18
    242c:	01 e0       	ldi	r16, 0x01	; 1
    242e:	20 e0       	ldi	r18, 0x00	; 0
    2430:	30 e0       	ldi	r19, 0x00	; 0
    2432:	40 e0       	ldi	r20, 0x00	; 0
    2434:	51 e0       	ldi	r21, 0x01	; 1
    2436:	6c e9       	ldi	r22, 0x9C	; 156
    2438:	72 e0       	ldi	r23, 0x02	; 2
    243a:	88 ee       	ldi	r24, 0xE8	; 232
    243c:	93 e1       	ldi	r25, 0x13	; 19
    243e:	cd d8       	rcall	.-3686   	; 0x15da <xTaskCreate>
    2440:	38 e4       	ldi	r19, 0x48	; 72
    2442:	e3 2e       	mov	r14, r19
    2444:	33 e0       	ldi	r19, 0x03	; 3
    2446:	f3 2e       	mov	r15, r19
    2448:	20 e0       	ldi	r18, 0x00	; 0
    244a:	30 e0       	ldi	r19, 0x00	; 0
    244c:	40 e0       	ldi	r20, 0x00	; 0
    244e:	51 e0       	ldi	r21, 0x01	; 1
    2450:	6e e9       	ldi	r22, 0x9E	; 158
    2452:	72 e0       	ldi	r23, 0x02	; 2
    2454:	83 e4       	ldi	r24, 0x43	; 67
    2456:	92 e1       	ldi	r25, 0x12	; 18
    2458:	c0 d8       	rcall	.-3712   	; 0x15da <xTaskCreate>
    245a:	4c e4       	ldi	r20, 0x4C	; 76
    245c:	e4 2e       	mov	r14, r20
    245e:	43 e0       	ldi	r20, 0x03	; 3
    2460:	f4 2e       	mov	r15, r20
    2462:	02 e0       	ldi	r16, 0x02	; 2
    2464:	20 e0       	ldi	r18, 0x00	; 0
    2466:	30 e0       	ldi	r19, 0x00	; 0
    2468:	40 e0       	ldi	r20, 0x00	; 0
    246a:	51 e0       	ldi	r21, 0x01	; 1
    246c:	63 ea       	ldi	r22, 0xA3	; 163
    246e:	72 e0       	ldi	r23, 0x02	; 2
    2470:	8a e6       	ldi	r24, 0x6A	; 106
    2472:	91 e0       	ldi	r25, 0x01	; 1
    2474:	b2 d8       	rcall	.-3740   	; 0x15da <xTaskCreate>
    2476:	0f 91       	pop	r16
    2478:	ff 90       	pop	r15
    247a:	ef 90       	pop	r14
    247c:	6e ca       	rjmp	.-2852   	; 0x195a <vTaskStartScheduler>

0000247e <main>:
    247e:	71 df       	rcall	.-286    	; 0x2362 <_Z4initv>
    2480:	80 e0       	ldi	r24, 0x00	; 0
    2482:	90 e0       	ldi	r25, 0x00	; 0
    2484:	08 95       	ret

00002486 <_Z9polnjenjePv>:
    2486:	6f ef       	ldi	r22, 0xFF	; 255
    2488:	7f ef       	ldi	r23, 0xFF	; 255
    248a:	80 91 46 03 	lds	r24, 0x0346	; 0x800346 <voltage_SEM>
    248e:	90 91 47 03 	lds	r25, 0x0347	; 0x800347 <voltage_SEM+0x1>
    2492:	0e 94 cd 09 	call	0x139a	; 0x139a <xQueueSemaphoreTake>
    2496:	c0 90 44 02 	lds	r12, 0x0244	; 0x800244 <Hardware+0x7>
    249a:	d0 90 45 02 	lds	r13, 0x0245	; 0x800245 <Hardware+0x8>
    249e:	e0 90 46 02 	lds	r14, 0x0246	; 0x800246 <Hardware+0x9>
    24a2:	f0 90 47 02 	lds	r15, 0x0247	; 0x800247 <Hardware+0xa>
    24a6:	20 e0       	ldi	r18, 0x00	; 0
    24a8:	30 eb       	ldi	r19, 0xB0	; 176
    24aa:	41 e8       	ldi	r20, 0x81	; 129
    24ac:	55 e4       	ldi	r21, 0x45	; 69
    24ae:	c7 01       	movw	r24, r14
    24b0:	b6 01       	movw	r22, r12
    24b2:	9b d3       	rcall	.+1846   	; 0x2bea <__gesf2>
    24b4:	87 fd       	sbrc	r24, 7
    24b6:	0a c0       	rjmp	.+20     	; 0x24cc <_Z9polnjenjePv+0x46>
    24b8:	c0 91 43 02 	lds	r28, 0x0243	; 0x800243 <Hardware+0x6>
    24bc:	c3 fd       	sbrc	r28, 3
    24be:	5a c0       	rjmp	.+180    	; 0x2574 <_Z9polnjenjePv+0xee>
    24c0:	c8 60       	ori	r28, 0x08	; 8
    24c2:	c0 93 43 02 	sts	0x0243, r28	; 0x800243 <Hardware+0x6>
    24c6:	41 e0       	ldi	r20, 0x01	; 1
    24c8:	50 e0       	ldi	r21, 0x00	; 0
    24ca:	12 c0       	rjmp	.+36     	; 0x24f0 <_Z9polnjenjePv+0x6a>
    24cc:	20 e0       	ldi	r18, 0x00	; 0
    24ce:	30 e0       	ldi	r19, 0x00	; 0
    24d0:	4a e7       	ldi	r20, 0x7A	; 122
    24d2:	55 e4       	ldi	r21, 0x45	; 69
    24d4:	c7 01       	movw	r24, r14
    24d6:	b6 01       	movw	r22, r12
    24d8:	3e d2       	rcall	.+1148   	; 0x2956 <__cmpsf2>
    24da:	18 16       	cp	r1, r24
    24dc:	6c f0       	brlt	.+26     	; 0x24f8 <_Z9polnjenjePv+0x72>
    24de:	c0 91 43 02 	lds	r28, 0x0243	; 0x800243 <Hardware+0x6>
    24e2:	c3 ff       	sbrs	r28, 3
    24e4:	09 c0       	rjmp	.+18     	; 0x24f8 <_Z9polnjenjePv+0x72>
    24e6:	c7 7f       	andi	r28, 0xF7	; 247
    24e8:	c0 93 43 02 	sts	0x0243, r28	; 0x800243 <Hardware+0x6>
    24ec:	40 e0       	ldi	r20, 0x00	; 0
    24ee:	50 e0       	ldi	r21, 0x00	; 0
    24f0:	60 e0       	ldi	r22, 0x00	; 0
    24f2:	85 e4       	ldi	r24, 0x45	; 69
    24f4:	93 e0       	ldi	r25, 0x03	; 3
    24f6:	d4 dd       	rcall	.-1112   	; 0x20a0 <_ZN8EEPROM_t4pisiEhj>
    24f8:	20 e0       	ldi	r18, 0x00	; 0
    24fa:	40 e0       	ldi	r20, 0x00	; 0
    24fc:	50 e0       	ldi	r21, 0x00	; 0
    24fe:	60 e0       	ldi	r22, 0x00	; 0
    2500:	70 e0       	ldi	r23, 0x00	; 0
    2502:	80 91 46 03 	lds	r24, 0x0346	; 0x800346 <voltage_SEM>
    2506:	90 91 47 03 	lds	r25, 0x0347	; 0x800347 <voltage_SEM+0x1>
    250a:	0e 94 1c 09 	call	0x1238	; 0x1238 <xQueueGenericSend>
    250e:	80 91 43 02 	lds	r24, 0x0243	; 0x800243 <Hardware+0x6>
    2512:	83 ff       	sbrs	r24, 3
    2514:	0c c0       	rjmp	.+24     	; 0x252e <_Z9polnjenjePv+0xa8>
    2516:	80 91 43 02 	lds	r24, 0x0243	; 0x800243 <Hardware+0x6>
    251a:	83 ff       	sbrs	r24, 3
    251c:	0d c0       	rjmp	.+26     	; 0x2538 <_Z9polnjenjePv+0xb2>
    251e:	40 e0       	ldi	r20, 0x00	; 0
    2520:	68 e4       	ldi	r22, 0x48	; 72
    2522:	85 e0       	ldi	r24, 0x05	; 5
    2524:	fc dd       	rcall	.-1032   	; 0x211e <_Z11writeOUTPUThcb>
    2526:	80 91 43 02 	lds	r24, 0x0243	; 0x800243 <Hardware+0x6>
    252a:	87 7f       	andi	r24, 0xF7	; 247
    252c:	20 c0       	rjmp	.+64     	; 0x256e <_Z9polnjenjePv+0xe8>
    252e:	8c e3       	ldi	r24, 0x3C	; 60
    2530:	93 e0       	ldi	r25, 0x03	; 3
    2532:	b7 de       	rcall	.-658    	; 0x22a2 <_ZN4VHOD8vrednostEv>
    2534:	88 23       	and	r24, r24
    2536:	79 f3       	breq	.-34     	; 0x2516 <_Z9polnjenjePv+0x90>
    2538:	80 91 43 02 	lds	r24, 0x0243	; 0x800243 <Hardware+0x6>
    253c:	83 fd       	sbrc	r24, 3
    253e:	09 c0       	rjmp	.+18     	; 0x2552 <_Z9polnjenjePv+0xcc>
    2540:	8c e3       	ldi	r24, 0x3C	; 60
    2542:	93 e0       	ldi	r25, 0x03	; 3
    2544:	ae de       	rcall	.-676    	; 0x22a2 <_ZN4VHOD8vrednostEv>
    2546:	88 23       	and	r24, r24
    2548:	21 f0       	breq	.+8      	; 0x2552 <_Z9polnjenjePv+0xcc>
    254a:	80 91 43 02 	lds	r24, 0x0243	; 0x800243 <Hardware+0x6>
    254e:	83 ff       	sbrs	r24, 3
    2550:	04 c0       	rjmp	.+8      	; 0x255a <_Z9polnjenjePv+0xd4>
    2552:	88 ec       	ldi	r24, 0xC8	; 200
    2554:	90 e0       	ldi	r25, 0x00	; 0
    2556:	48 db       	rcall	.-2416   	; 0x1be8 <vTaskDelay>
    2558:	96 cf       	rjmp	.-212    	; 0x2486 <_Z9polnjenjePv>
    255a:	80 ed       	ldi	r24, 0xD0	; 208
    255c:	97 e0       	ldi	r25, 0x07	; 7
    255e:	44 db       	rcall	.-2424   	; 0x1be8 <vTaskDelay>
    2560:	41 e0       	ldi	r20, 0x01	; 1
    2562:	68 e4       	ldi	r22, 0x48	; 72
    2564:	85 e0       	ldi	r24, 0x05	; 5
    2566:	db dd       	rcall	.-1098   	; 0x211e <_Z11writeOUTPUThcb>
    2568:	80 91 43 02 	lds	r24, 0x0243	; 0x800243 <Hardware+0x6>
    256c:	88 60       	ori	r24, 0x08	; 8
    256e:	80 93 43 02 	sts	0x0243, r24	; 0x800243 <Hardware+0x6>
    2572:	ef cf       	rjmp	.-34     	; 0x2552 <_Z9polnjenjePv+0xcc>
    2574:	20 e0       	ldi	r18, 0x00	; 0
    2576:	30 e0       	ldi	r19, 0x00	; 0
    2578:	4a e7       	ldi	r20, 0x7A	; 122
    257a:	55 e4       	ldi	r21, 0x45	; 69
    257c:	c7 01       	movw	r24, r14
    257e:	b6 01       	movw	r22, r12
    2580:	ea d1       	rcall	.+980    	; 0x2956 <__cmpsf2>
    2582:	18 16       	cp	r1, r24
    2584:	0c f0       	brlt	.+2      	; 0x2588 <_Z9polnjenjePv+0x102>
    2586:	af cf       	rjmp	.-162    	; 0x24e6 <_Z9polnjenjePv+0x60>
    2588:	b7 cf       	rjmp	.-146    	; 0x24f8 <_Z9polnjenjePv+0x72>

0000258a <_Z8Shutdownv>:
    258a:	40 e0       	ldi	r20, 0x00	; 0
    258c:	62 e4       	ldi	r22, 0x42	; 66
    258e:	87 e0       	ldi	r24, 0x07	; 7
    2590:	c6 dd       	rcall	.-1140   	; 0x211e <_Z11writeOUTPUThcb>
    2592:	40 e0       	ldi	r20, 0x00	; 0
    2594:	68 e4       	ldi	r22, 0x48	; 72
    2596:	83 e0       	ldi	r24, 0x03	; 3
    2598:	c2 dd       	rcall	.-1148   	; 0x211e <_Z11writeOUTPUThcb>
    259a:	ed e3       	ldi	r30, 0x3D	; 61
    259c:	f2 e0       	ldi	r31, 0x02	; 2
    259e:	86 81       	ldd	r24, Z+6	; 0x06
    25a0:	8e 7f       	andi	r24, 0xFE	; 254
    25a2:	86 83       	std	Z+6, r24	; 0x06
    25a4:	84 e0       	ldi	r24, 0x04	; 4
    25a6:	90 e0       	ldi	r25, 0x00	; 0
    25a8:	90 93 2f 02 	sts	0x022F, r25	; 0x80022f <audio_system+0x1>
    25ac:	80 93 2e 02 	sts	0x022E, r24	; 0x80022e <audio_system>
    25b0:	08 95       	ret

000025b2 <_Z8Power_UPv>:
    25b2:	61 e0       	ldi	r22, 0x01	; 1
    25b4:	70 e0       	ldi	r23, 0x00	; 0
    25b6:	85 e4       	ldi	r24, 0x45	; 69
    25b8:	93 e0       	ldi	r25, 0x03	; 3
    25ba:	7a dd       	rcall	.-1292   	; 0x20b0 <_ZN8EEPROM_t4beriEj>
    25bc:	90 e0       	ldi	r25, 0x00	; 0
    25be:	90 93 2f 02 	sts	0x022F, r25	; 0x80022f <audio_system+0x1>
    25c2:	80 93 2e 02 	sts	0x022E, r24	; 0x80022e <audio_system>
    25c6:	41 e0       	ldi	r20, 0x01	; 1
    25c8:	62 e4       	ldi	r22, 0x42	; 66
    25ca:	87 e0       	ldi	r24, 0x07	; 7
    25cc:	a8 dd       	rcall	.-1200   	; 0x211e <_Z11writeOUTPUThcb>
    25ce:	41 e0       	ldi	r20, 0x01	; 1
    25d0:	68 e4       	ldi	r22, 0x48	; 72
    25d2:	83 e0       	ldi	r24, 0x03	; 3
    25d4:	a4 dd       	rcall	.-1208   	; 0x211e <_Z11writeOUTPUThcb>
    25d6:	ed e3       	ldi	r30, 0x3D	; 61
    25d8:	f2 e0       	ldi	r31, 0x02	; 2
    25da:	86 81       	ldd	r24, Z+6	; 0x06
    25dc:	81 60       	ori	r24, 0x01	; 1
    25de:	86 83       	std	Z+6, r24	; 0x06
    25e0:	08 95       	ret

000025e2 <_Z5powerPv>:
    25e2:	cf 93       	push	r28
    25e4:	df 93       	push	r29
    25e6:	cd b7       	in	r28, 0x3d	; 61
    25e8:	de b7       	in	r29, 0x3e	; 62
    25ea:	63 97       	sbiw	r28, 0x13	; 19
    25ec:	0f b6       	in	r0, 0x3f	; 63
    25ee:	f8 94       	cli
    25f0:	de bf       	out	0x3e, r29	; 62
    25f2:	0f be       	out	0x3f, r0	; 63
    25f4:	cd bf       	out	0x3d, r28	; 61
    25f6:	8b e4       	ldi	r24, 0x4B	; 75
    25f8:	8f 83       	std	Y+7, r24	; 0x07
    25fa:	81 e0       	ldi	r24, 0x01	; 1
    25fc:	90 e0       	ldi	r25, 0x00	; 0
    25fe:	9e 83       	std	Y+6, r25	; 0x06
    2600:	8d 83       	std	Y+5, r24	; 0x05
    2602:	19 86       	std	Y+9, r1	; 0x09
    2604:	18 86       	std	Y+8, r1	; 0x08
    2606:	ce 01       	movw	r24, r28
    2608:	0f 96       	adiw	r24, 0x0f	; 15
    260a:	22 dd       	rcall	.-1468   	; 0x2050 <_ZN8castimer8vrednostEv>
    260c:	65 3f       	cpi	r22, 0xF5	; 245
    260e:	71 40       	sbci	r23, 0x01	; 1
    2610:	81 05       	cpc	r24, r1
    2612:	91 05       	cpc	r25, r1
    2614:	18 f1       	brcs	.+70     	; 0x265c <_Z5powerPv+0x7a>
    2616:	6f ef       	ldi	r22, 0xFF	; 255
    2618:	7f ef       	ldi	r23, 0xFF	; 255
    261a:	80 91 46 03 	lds	r24, 0x0346	; 0x800346 <voltage_SEM>
    261e:	90 91 47 03 	lds	r25, 0x0347	; 0x800347 <voltage_SEM+0x1>
    2622:	0e 94 cd 09 	call	0x139a	; 0x139a <xQueueSemaphoreTake>
    2626:	82 e0       	ldi	r24, 0x02	; 2
    2628:	e6 dd       	rcall	.-1076   	; 0x21f6 <_Z10readANALOGh>
    262a:	bc 01       	movw	r22, r24
    262c:	80 e0       	ldi	r24, 0x00	; 0
    262e:	90 e0       	ldi	r25, 0x00	; 0
    2630:	2a d2       	rcall	.+1108   	; 0x2a86 <__floatunsisf>
    2632:	20 e0       	ldi	r18, 0x00	; 0
    2634:	30 e4       	ldi	r19, 0x40	; 64
    2636:	4c e9       	ldi	r20, 0x9C	; 156
    2638:	55 e4       	ldi	r21, 0x45	; 69
    263a:	db d2       	rcall	.+1462   	; 0x2bf2 <__mulsf3>
    263c:	20 e0       	ldi	r18, 0x00	; 0
    263e:	30 ec       	ldi	r19, 0xC0	; 192
    2640:	4f e7       	ldi	r20, 0x7F	; 127
    2642:	54 e4       	ldi	r21, 0x44	; 68
    2644:	8c d1       	rcall	.+792    	; 0x295e <__divsf3>
    2646:	60 93 44 02 	sts	0x0244, r22	; 0x800244 <Hardware+0x7>
    264a:	70 93 45 02 	sts	0x0245, r23	; 0x800245 <Hardware+0x8>
    264e:	80 93 46 02 	sts	0x0246, r24	; 0x800246 <Hardware+0x9>
    2652:	90 93 47 02 	sts	0x0247, r25	; 0x800247 <Hardware+0xa>
    2656:	ce 01       	movw	r24, r28
    2658:	0f 96       	adiw	r24, 0x0f	; 15
    265a:	1f dd       	rcall	.-1474   	; 0x209a <_ZN8castimer9ponastaviEv>
    265c:	20 e0       	ldi	r18, 0x00	; 0
    265e:	40 e0       	ldi	r20, 0x00	; 0
    2660:	50 e0       	ldi	r21, 0x00	; 0
    2662:	60 e0       	ldi	r22, 0x00	; 0
    2664:	70 e0       	ldi	r23, 0x00	; 0
    2666:	80 91 46 03 	lds	r24, 0x0346	; 0x800346 <voltage_SEM>
    266a:	90 91 47 03 	lds	r25, 0x0347	; 0x800347 <voltage_SEM+0x1>
    266e:	0e 94 1c 09 	call	0x1238	; 0x1238 <xQueueGenericSend>
    2672:	87 e3       	ldi	r24, 0x37	; 55
    2674:	93 e0       	ldi	r25, 0x03	; 3
    2676:	ec dc       	rcall	.-1576   	; 0x2050 <_ZN8castimer8vrednostEv>
    2678:	60 3d       	cpi	r22, 0xD0	; 208
    267a:	77 40       	sbci	r23, 0x07	; 7
    267c:	81 05       	cpc	r24, r1
    267e:	91 05       	cpc	r25, r1
    2680:	a8 f0       	brcs	.+42     	; 0x26ac <_Z5powerPv+0xca>
    2682:	20 e0       	ldi	r18, 0x00	; 0
    2684:	30 e4       	ldi	r19, 0x40	; 64
    2686:	4e e4       	ldi	r20, 0x4E	; 78
    2688:	55 e4       	ldi	r21, 0x45	; 69
    268a:	60 91 44 02 	lds	r22, 0x0244	; 0x800244 <Hardware+0x7>
    268e:	70 91 45 02 	lds	r23, 0x0245	; 0x800245 <Hardware+0x8>
    2692:	80 91 46 02 	lds	r24, 0x0246	; 0x800246 <Hardware+0x9>
    2696:	90 91 47 02 	lds	r25, 0x0247	; 0x800247 <Hardware+0xa>
    269a:	a7 d2       	rcall	.+1358   	; 0x2bea <__gesf2>
    269c:	90 91 43 02 	lds	r25, 0x0243	; 0x800243 <Hardware+0x6>
    26a0:	18 16       	cp	r1, r24
    26a2:	14 f0       	brlt	.+4      	; 0x26a8 <_Z5powerPv+0xc6>
    26a4:	91 ff       	sbrs	r25, 1
    26a6:	02 c0       	rjmp	.+4      	; 0x26ac <_Z5powerPv+0xca>
    26a8:	90 ff       	sbrs	r25, 0
    26aa:	0e c0       	rjmp	.+28     	; 0x26c8 <_Z5powerPv+0xe6>
    26ac:	ce 01       	movw	r24, r28
    26ae:	01 96       	adiw	r24, 0x01	; 1
    26b0:	f8 dd       	rcall	.-1040   	; 0x22a2 <_ZN4VHOD8vrednostEv>
    26b2:	81 11       	cpse	r24, r1
    26b4:	12 c0       	rjmp	.+36     	; 0x26da <_Z5powerPv+0xf8>
    26b6:	ce 01       	movw	r24, r28
    26b8:	0a 96       	adiw	r24, 0x0a	; 10
    26ba:	ca dc       	rcall	.-1644   	; 0x2050 <_ZN8castimer8vrednostEv>
    26bc:	6f 31       	cpi	r22, 0x1F	; 31
    26be:	71 05       	cpc	r23, r1
    26c0:	81 05       	cpc	r24, r1
    26c2:	91 05       	cpc	r25, r1
    26c4:	18 f4       	brcc	.+6      	; 0x26cc <_Z5powerPv+0xea>
    26c6:	09 c0       	rjmp	.+18     	; 0x26da <_Z5powerPv+0xf8>
    26c8:	74 df       	rcall	.-280    	; 0x25b2 <_Z8Power_UPv>
    26ca:	f0 cf       	rjmp	.-32     	; 0x26ac <_Z5powerPv+0xca>
    26cc:	80 91 43 02 	lds	r24, 0x0243	; 0x800243 <Hardware+0x6>
    26d0:	80 fd       	sbrc	r24, 0
    26d2:	5b df       	rcall	.-330    	; 0x258a <_Z8Shutdownv>
    26d4:	87 e3       	ldi	r24, 0x37	; 55
    26d6:	93 e0       	ldi	r25, 0x03	; 3
    26d8:	07 c0       	rjmp	.+14     	; 0x26e8 <_Z5powerPv+0x106>
    26da:	ce 01       	movw	r24, r28
    26dc:	01 96       	adiw	r24, 0x01	; 1
    26de:	e1 dd       	rcall	.-1086   	; 0x22a2 <_ZN4VHOD8vrednostEv>
    26e0:	88 23       	and	r24, r24
    26e2:	19 f0       	breq	.+6      	; 0x26ea <_Z5powerPv+0x108>
    26e4:	ce 01       	movw	r24, r28
    26e6:	0a 96       	adiw	r24, 0x0a	; 10
    26e8:	d8 dc       	rcall	.-1616   	; 0x209a <_ZN8castimer9ponastaviEv>
    26ea:	20 e0       	ldi	r18, 0x00	; 0
    26ec:	30 e0       	ldi	r19, 0x00	; 0
    26ee:	48 e4       	ldi	r20, 0x48	; 72
    26f0:	55 e4       	ldi	r21, 0x45	; 69
    26f2:	60 91 44 02 	lds	r22, 0x0244	; 0x800244 <Hardware+0x7>
    26f6:	70 91 45 02 	lds	r23, 0x0245	; 0x800245 <Hardware+0x8>
    26fa:	80 91 46 02 	lds	r24, 0x0246	; 0x800246 <Hardware+0x9>
    26fe:	90 91 47 02 	lds	r25, 0x0247	; 0x800247 <Hardware+0xa>
    2702:	29 d1       	rcall	.+594    	; 0x2956 <__cmpsf2>
    2704:	18 16       	cp	r1, r24
    2706:	9c f0       	brlt	.+38     	; 0x272e <_Z5powerPv+0x14c>
    2708:	8c e3       	ldi	r24, 0x3C	; 60
    270a:	93 e0       	ldi	r25, 0x03	; 3
    270c:	ca dd       	rcall	.-1132   	; 0x22a2 <_ZN4VHOD8vrednostEv>
    270e:	81 11       	cpse	r24, r1
    2710:	0e c0       	rjmp	.+28     	; 0x272e <_Z5powerPv+0x14c>
    2712:	20 e0       	ldi	r18, 0x00	; 0
    2714:	30 e0       	ldi	r19, 0x00	; 0
    2716:	a9 01       	movw	r20, r18
    2718:	60 91 44 02 	lds	r22, 0x0244	; 0x800244 <Hardware+0x7>
    271c:	70 91 45 02 	lds	r23, 0x0245	; 0x800245 <Hardware+0x8>
    2720:	80 91 46 02 	lds	r24, 0x0246	; 0x800246 <Hardware+0x9>
    2724:	90 91 47 02 	lds	r25, 0x0247	; 0x800247 <Hardware+0xa>
    2728:	60 d2       	rcall	.+1216   	; 0x2bea <__gesf2>
    272a:	18 16       	cp	r1, r24
    272c:	24 f0       	brlt	.+8      	; 0x2736 <_Z5powerPv+0x154>
    272e:	84 e1       	ldi	r24, 0x14	; 20
    2730:	90 e0       	ldi	r25, 0x00	; 0
    2732:	5a da       	rcall	.-2892   	; 0x1be8 <vTaskDelay>
    2734:	68 cf       	rjmp	.-304    	; 0x2606 <_Z5powerPv+0x24>
    2736:	13 d0       	rcall	.+38     	; 0x275e <_Z6spanjev>
    2738:	fa cf       	rjmp	.-12     	; 0x272e <_Z5powerPv+0x14c>

0000273a <_Z7bujenjev>:
    273a:	83 b7       	in	r24, 0x33	; 51
    273c:	8e 7f       	andi	r24, 0xFE	; 254
    273e:	83 bf       	out	0x33, r24	; 51
    2740:	10 92 68 00 	sts	0x0068, r1	; 0x800068 <__TEXT_REGION_LENGTH__+0x7c0068>
    2744:	1b ba       	out	0x1b, r1	; 27
    2746:	10 92 6d 00 	sts	0x006D, r1	; 0x80006d <__TEXT_REGION_LENGTH__+0x7c006d>
    274a:	2f ef       	ldi	r18, 0xFF	; 255
    274c:	83 ec       	ldi	r24, 0xC3	; 195
    274e:	99 e0       	ldi	r25, 0x09	; 9
    2750:	21 50       	subi	r18, 0x01	; 1
    2752:	80 40       	sbci	r24, 0x00	; 0
    2754:	90 40       	sbci	r25, 0x00	; 0
    2756:	e1 f7       	brne	.-8      	; 0x2750 <_Z7bujenjev+0x16>
    2758:	00 c0       	rjmp	.+0      	; 0x275a <_Z7bujenjev+0x20>
    275a:	00 00       	nop
    275c:	08 95       	ret

0000275e <_Z6spanjev>:
    275e:	15 df       	rcall	.-470    	; 0x258a <_Z8Shutdownv>
    2760:	78 94       	sei
    2762:	84 e0       	ldi	r24, 0x04	; 4
    2764:	80 93 68 00 	sts	0x0068, r24	; 0x800068 <__TEXT_REGION_LENGTH__+0x7c0068>
    2768:	8b bb       	out	0x1b, r24	; 27
    276a:	82 e0       	ldi	r24, 0x02	; 2
    276c:	80 93 6d 00 	sts	0x006D, r24	; 0x80006d <__TEXT_REGION_LENGTH__+0x7c006d>
    2770:	83 b7       	in	r24, 0x33	; 51
    2772:	81 7f       	andi	r24, 0xF1	; 241
    2774:	84 60       	ori	r24, 0x04	; 4
    2776:	83 bf       	out	0x33, r24	; 51
    2778:	83 b7       	in	r24, 0x33	; 51
    277a:	81 60       	ori	r24, 0x01	; 1
    277c:	83 bf       	out	0x33, r24	; 51
    277e:	88 95       	sleep
    2780:	08 95       	ret

00002782 <__vector_11>:
    2782:	1f 92       	push	r1
    2784:	0f 92       	push	r0
    2786:	0f b6       	in	r0, 0x3f	; 63
    2788:	0f 92       	push	r0
    278a:	11 24       	eor	r1, r1
    278c:	0b b6       	in	r0, 0x3b	; 59
    278e:	0f 92       	push	r0
    2790:	2f 93       	push	r18
    2792:	3f 93       	push	r19
    2794:	4f 93       	push	r20
    2796:	5f 93       	push	r21
    2798:	6f 93       	push	r22
    279a:	7f 93       	push	r23
    279c:	8f 93       	push	r24
    279e:	9f 93       	push	r25
    27a0:	af 93       	push	r26
    27a2:	bf 93       	push	r27
    27a4:	ef 93       	push	r30
    27a6:	ff 93       	push	r31
    27a8:	c8 df       	rcall	.-112    	; 0x273a <_Z7bujenjev>
    27aa:	ff 91       	pop	r31
    27ac:	ef 91       	pop	r30
    27ae:	bf 91       	pop	r27
    27b0:	af 91       	pop	r26
    27b2:	9f 91       	pop	r25
    27b4:	8f 91       	pop	r24
    27b6:	7f 91       	pop	r23
    27b8:	6f 91       	pop	r22
    27ba:	5f 91       	pop	r21
    27bc:	4f 91       	pop	r20
    27be:	3f 91       	pop	r19
    27c0:	2f 91       	pop	r18
    27c2:	0f 90       	pop	r0
    27c4:	0b be       	out	0x3b, r0	; 59
    27c6:	0f 90       	pop	r0
    27c8:	0f be       	out	0x3f, r0	; 63
    27ca:	0f 90       	pop	r0
    27cc:	1f 90       	pop	r1
    27ce:	18 95       	reti

000027d0 <_Z6zaslonPv>:
    27d0:	cf 93       	push	r28
    27d2:	df 93       	push	r29
    27d4:	00 d0       	rcall	.+0      	; 0x27d6 <_Z6zaslonPv+0x6>
    27d6:	1f 92       	push	r1
    27d8:	1f 92       	push	r1
    27da:	cd b7       	in	r28, 0x3d	; 61
    27dc:	de b7       	in	r29, 0x3e	; 62
    27de:	80 91 43 02 	lds	r24, 0x0243	; 0x800243 <Hardware+0x6>
    27e2:	84 ff       	sbrs	r24, 4
    27e4:	2d c0       	rjmp	.+90     	; 0x2840 <_Z6zaslonPv+0x70>
    27e6:	8c e3       	ldi	r24, 0x3C	; 60
    27e8:	93 e0       	ldi	r25, 0x03	; 3
    27ea:	5b dd       	rcall	.-1354   	; 0x22a2 <_ZN4VHOD8vrednostEv>
    27ec:	81 11       	cpse	r24, r1
    27ee:	0d c0       	rjmp	.+26     	; 0x280a <_Z6zaslonPv+0x3a>
    27f0:	ce 01       	movw	r24, r28
    27f2:	01 96       	adiw	r24, 0x01	; 1
    27f4:	2d dc       	rcall	.-1958   	; 0x2050 <_ZN8castimer8vrednostEv>
    27f6:	68 32       	cpi	r22, 0x28	; 40
    27f8:	73 42       	sbci	r23, 0x23	; 35
    27fa:	81 05       	cpc	r24, r1
    27fc:	91 05       	cpc	r25, r1
    27fe:	90 f5       	brcc	.+100    	; 0x2864 <_Z6zaslonPv+0x94>
    2800:	80 91 43 02 	lds	r24, 0x0243	; 0x800243 <Hardware+0x6>
    2804:	80 fd       	sbrc	r24, 0
    2806:	36 c0       	rjmp	.+108    	; 0x2874 <_Z6zaslonPv+0xa4>
    2808:	2d c0       	rjmp	.+90     	; 0x2864 <_Z6zaslonPv+0x94>
    280a:	80 91 43 02 	lds	r24, 0x0243	; 0x800243 <Hardware+0x6>
    280e:	83 ff       	sbrs	r24, 3
    2810:	0a c0       	rjmp	.+20     	; 0x2826 <_Z6zaslonPv+0x56>
    2812:	88 ee       	ldi	r24, 0xE8	; 232
    2814:	93 e0       	ldi	r25, 0x03	; 3
    2816:	e8 d9       	rcall	.-3120   	; 0x1be8 <vTaskDelay>
    2818:	65 e4       	ldi	r22, 0x45	; 69
    281a:	80 e0       	ldi	r24, 0x00	; 0
    281c:	bf dc       	rcall	.-1666   	; 0x219c <_Z12toggleOUTPUThc>
    281e:	ce 01       	movw	r24, r28
    2820:	01 96       	adiw	r24, 0x01	; 1
    2822:	3b dc       	rcall	.-1930   	; 0x209a <_ZN8castimer9ponastaviEv>
    2824:	1b c0       	rjmp	.+54     	; 0x285c <_Z6zaslonPv+0x8c>
    2826:	41 e0       	ldi	r20, 0x01	; 1
    2828:	65 e4       	ldi	r22, 0x45	; 69
    282a:	80 e0       	ldi	r24, 0x00	; 0
    282c:	78 dc       	rcall	.-1808   	; 0x211e <_Z11writeOUTPUThcb>
    282e:	80 e7       	ldi	r24, 0x70	; 112
    2830:	97 e1       	ldi	r25, 0x17	; 23
    2832:	da d9       	rcall	.-3148   	; 0x1be8 <vTaskDelay>
    2834:	80 91 43 02 	lds	r24, 0x0243	; 0x800243 <Hardware+0x6>
    2838:	8f 7e       	andi	r24, 0xEF	; 239
    283a:	80 93 43 02 	sts	0x0243, r24	; 0x800243 <Hardware+0x6>
    283e:	0e c0       	rjmp	.+28     	; 0x285c <_Z6zaslonPv+0x8c>
    2840:	28 98       	cbi	0x05, 0	; 5
    2842:	80 91 4a 03 	lds	r24, 0x034A	; 0x80034a <zaslon_control>
    2846:	90 91 4b 03 	lds	r25, 0x034B	; 0x80034b <zaslon_control+0x1>
    284a:	09 d8       	rcall	.-4078   	; 0x185e <eTaskGetState>
    284c:	83 30       	cpi	r24, 0x03	; 3
    284e:	31 f0       	breq	.+12     	; 0x285c <_Z6zaslonPv+0x8c>
    2850:	80 91 4a 03 	lds	r24, 0x034A	; 0x80034a <zaslon_control>
    2854:	90 91 4b 03 	lds	r25, 0x034B	; 0x80034b <zaslon_control+0x1>
    2858:	00 97       	sbiw	r24, 0x00	; 0
    285a:	b1 f4       	brne	.+44     	; 0x2888 <_Z6zaslonPv+0xb8>
    285c:	80 e9       	ldi	r24, 0x90	; 144
    285e:	91 e0       	ldi	r25, 0x01	; 1
    2860:	c3 d9       	rcall	.-3194   	; 0x1be8 <vTaskDelay>
    2862:	bd cf       	rjmp	.-134    	; 0x27de <_Z6zaslonPv+0xe>
    2864:	ce 01       	movw	r24, r28
    2866:	01 96       	adiw	r24, 0x01	; 1
    2868:	18 dc       	rcall	.-2000   	; 0x209a <_ZN8castimer9ponastaviEv>
    286a:	40 e0       	ldi	r20, 0x00	; 0
    286c:	65 e4       	ldi	r22, 0x45	; 69
    286e:	80 e0       	ldi	r24, 0x00	; 0
    2870:	56 dc       	rcall	.-1876   	; 0x211e <_Z11writeOUTPUThcb>
    2872:	f4 cf       	rjmp	.-24     	; 0x285c <_Z6zaslonPv+0x8c>
    2874:	ce 01       	movw	r24, r28
    2876:	01 96       	adiw	r24, 0x01	; 1
    2878:	eb db       	rcall	.-2090   	; 0x2050 <_ZN8castimer8vrednostEv>
    287a:	61 37       	cpi	r22, 0x71	; 113
    287c:	77 41       	sbci	r23, 0x17	; 23
    287e:	81 05       	cpc	r24, r1
    2880:	91 05       	cpc	r25, r1
    2882:	60 f3       	brcs	.-40     	; 0x285c <_Z6zaslonPv+0x8c>
    2884:	41 e0       	ldi	r20, 0x01	; 1
    2886:	f2 cf       	rjmp	.-28     	; 0x286c <_Z6zaslonPv+0x9c>
    2888:	03 da       	rcall	.-3066   	; 0x1c90 <vTaskSuspend>
    288a:	e8 cf       	rjmp	.-48     	; 0x285c <_Z6zaslonPv+0x8c>

0000288c <__subsf3>:
    288c:	50 58       	subi	r21, 0x80	; 128

0000288e <__addsf3>:
    288e:	bb 27       	eor	r27, r27
    2890:	aa 27       	eor	r26, r26
    2892:	0e d0       	rcall	.+28     	; 0x28b0 <__addsf3x>
    2894:	70 c1       	rjmp	.+736    	; 0x2b76 <__fp_round>
    2896:	61 d1       	rcall	.+706    	; 0x2b5a <__fp_pscA>
    2898:	30 f0       	brcs	.+12     	; 0x28a6 <__addsf3+0x18>
    289a:	66 d1       	rcall	.+716    	; 0x2b68 <__fp_pscB>
    289c:	20 f0       	brcs	.+8      	; 0x28a6 <__addsf3+0x18>
    289e:	31 f4       	brne	.+12     	; 0x28ac <__addsf3+0x1e>
    28a0:	9f 3f       	cpi	r25, 0xFF	; 255
    28a2:	11 f4       	brne	.+4      	; 0x28a8 <__addsf3+0x1a>
    28a4:	1e f4       	brtc	.+6      	; 0x28ac <__addsf3+0x1e>
    28a6:	56 c1       	rjmp	.+684    	; 0x2b54 <__fp_nan>
    28a8:	0e f4       	brtc	.+2      	; 0x28ac <__addsf3+0x1e>
    28aa:	e0 95       	com	r30
    28ac:	e7 fb       	bst	r30, 7
    28ae:	4c c1       	rjmp	.+664    	; 0x2b48 <__fp_inf>

000028b0 <__addsf3x>:
    28b0:	e9 2f       	mov	r30, r25
    28b2:	72 d1       	rcall	.+740    	; 0x2b98 <__fp_split3>
    28b4:	80 f3       	brcs	.-32     	; 0x2896 <__addsf3+0x8>
    28b6:	ba 17       	cp	r27, r26
    28b8:	62 07       	cpc	r22, r18
    28ba:	73 07       	cpc	r23, r19
    28bc:	84 07       	cpc	r24, r20
    28be:	95 07       	cpc	r25, r21
    28c0:	18 f0       	brcs	.+6      	; 0x28c8 <__addsf3x+0x18>
    28c2:	71 f4       	brne	.+28     	; 0x28e0 <__addsf3x+0x30>
    28c4:	9e f5       	brtc	.+102    	; 0x292c <__addsf3x+0x7c>
    28c6:	8a c1       	rjmp	.+788    	; 0x2bdc <__fp_zero>
    28c8:	0e f4       	brtc	.+2      	; 0x28cc <__addsf3x+0x1c>
    28ca:	e0 95       	com	r30
    28cc:	0b 2e       	mov	r0, r27
    28ce:	ba 2f       	mov	r27, r26
    28d0:	a0 2d       	mov	r26, r0
    28d2:	0b 01       	movw	r0, r22
    28d4:	b9 01       	movw	r22, r18
    28d6:	90 01       	movw	r18, r0
    28d8:	0c 01       	movw	r0, r24
    28da:	ca 01       	movw	r24, r20
    28dc:	a0 01       	movw	r20, r0
    28de:	11 24       	eor	r1, r1
    28e0:	ff 27       	eor	r31, r31
    28e2:	59 1b       	sub	r21, r25
    28e4:	99 f0       	breq	.+38     	; 0x290c <__addsf3x+0x5c>
    28e6:	59 3f       	cpi	r21, 0xF9	; 249
    28e8:	50 f4       	brcc	.+20     	; 0x28fe <__addsf3x+0x4e>
    28ea:	50 3e       	cpi	r21, 0xE0	; 224
    28ec:	68 f1       	brcs	.+90     	; 0x2948 <__addsf3x+0x98>
    28ee:	1a 16       	cp	r1, r26
    28f0:	f0 40       	sbci	r31, 0x00	; 0
    28f2:	a2 2f       	mov	r26, r18
    28f4:	23 2f       	mov	r18, r19
    28f6:	34 2f       	mov	r19, r20
    28f8:	44 27       	eor	r20, r20
    28fa:	58 5f       	subi	r21, 0xF8	; 248
    28fc:	f3 cf       	rjmp	.-26     	; 0x28e4 <__addsf3x+0x34>
    28fe:	46 95       	lsr	r20
    2900:	37 95       	ror	r19
    2902:	27 95       	ror	r18
    2904:	a7 95       	ror	r26
    2906:	f0 40       	sbci	r31, 0x00	; 0
    2908:	53 95       	inc	r21
    290a:	c9 f7       	brne	.-14     	; 0x28fe <__addsf3x+0x4e>
    290c:	7e f4       	brtc	.+30     	; 0x292c <__addsf3x+0x7c>
    290e:	1f 16       	cp	r1, r31
    2910:	ba 0b       	sbc	r27, r26
    2912:	62 0b       	sbc	r22, r18
    2914:	73 0b       	sbc	r23, r19
    2916:	84 0b       	sbc	r24, r20
    2918:	ba f0       	brmi	.+46     	; 0x2948 <__addsf3x+0x98>
    291a:	91 50       	subi	r25, 0x01	; 1
    291c:	a1 f0       	breq	.+40     	; 0x2946 <__addsf3x+0x96>
    291e:	ff 0f       	add	r31, r31
    2920:	bb 1f       	adc	r27, r27
    2922:	66 1f       	adc	r22, r22
    2924:	77 1f       	adc	r23, r23
    2926:	88 1f       	adc	r24, r24
    2928:	c2 f7       	brpl	.-16     	; 0x291a <__addsf3x+0x6a>
    292a:	0e c0       	rjmp	.+28     	; 0x2948 <__addsf3x+0x98>
    292c:	ba 0f       	add	r27, r26
    292e:	62 1f       	adc	r22, r18
    2930:	73 1f       	adc	r23, r19
    2932:	84 1f       	adc	r24, r20
    2934:	48 f4       	brcc	.+18     	; 0x2948 <__addsf3x+0x98>
    2936:	87 95       	ror	r24
    2938:	77 95       	ror	r23
    293a:	67 95       	ror	r22
    293c:	b7 95       	ror	r27
    293e:	f7 95       	ror	r31
    2940:	9e 3f       	cpi	r25, 0xFE	; 254
    2942:	08 f0       	brcs	.+2      	; 0x2946 <__addsf3x+0x96>
    2944:	b3 cf       	rjmp	.-154    	; 0x28ac <__addsf3+0x1e>
    2946:	93 95       	inc	r25
    2948:	88 0f       	add	r24, r24
    294a:	08 f0       	brcs	.+2      	; 0x294e <__addsf3x+0x9e>
    294c:	99 27       	eor	r25, r25
    294e:	ee 0f       	add	r30, r30
    2950:	97 95       	ror	r25
    2952:	87 95       	ror	r24
    2954:	08 95       	ret

00002956 <__cmpsf2>:
    2956:	d4 d0       	rcall	.+424    	; 0x2b00 <__fp_cmp>
    2958:	08 f4       	brcc	.+2      	; 0x295c <__cmpsf2+0x6>
    295a:	81 e0       	ldi	r24, 0x01	; 1
    295c:	08 95       	ret

0000295e <__divsf3>:
    295e:	0c d0       	rcall	.+24     	; 0x2978 <__divsf3x>
    2960:	0a c1       	rjmp	.+532    	; 0x2b76 <__fp_round>
    2962:	02 d1       	rcall	.+516    	; 0x2b68 <__fp_pscB>
    2964:	40 f0       	brcs	.+16     	; 0x2976 <__divsf3+0x18>
    2966:	f9 d0       	rcall	.+498    	; 0x2b5a <__fp_pscA>
    2968:	30 f0       	brcs	.+12     	; 0x2976 <__divsf3+0x18>
    296a:	21 f4       	brne	.+8      	; 0x2974 <__divsf3+0x16>
    296c:	5f 3f       	cpi	r21, 0xFF	; 255
    296e:	19 f0       	breq	.+6      	; 0x2976 <__divsf3+0x18>
    2970:	eb c0       	rjmp	.+470    	; 0x2b48 <__fp_inf>
    2972:	51 11       	cpse	r21, r1
    2974:	34 c1       	rjmp	.+616    	; 0x2bde <__fp_szero>
    2976:	ee c0       	rjmp	.+476    	; 0x2b54 <__fp_nan>

00002978 <__divsf3x>:
    2978:	0f d1       	rcall	.+542    	; 0x2b98 <__fp_split3>
    297a:	98 f3       	brcs	.-26     	; 0x2962 <__divsf3+0x4>

0000297c <__divsf3_pse>:
    297c:	99 23       	and	r25, r25
    297e:	c9 f3       	breq	.-14     	; 0x2972 <__divsf3+0x14>
    2980:	55 23       	and	r21, r21
    2982:	b1 f3       	breq	.-20     	; 0x2970 <__divsf3+0x12>
    2984:	95 1b       	sub	r25, r21
    2986:	55 0b       	sbc	r21, r21
    2988:	bb 27       	eor	r27, r27
    298a:	aa 27       	eor	r26, r26
    298c:	62 17       	cp	r22, r18
    298e:	73 07       	cpc	r23, r19
    2990:	84 07       	cpc	r24, r20
    2992:	38 f0       	brcs	.+14     	; 0x29a2 <__divsf3_pse+0x26>
    2994:	9f 5f       	subi	r25, 0xFF	; 255
    2996:	5f 4f       	sbci	r21, 0xFF	; 255
    2998:	22 0f       	add	r18, r18
    299a:	33 1f       	adc	r19, r19
    299c:	44 1f       	adc	r20, r20
    299e:	aa 1f       	adc	r26, r26
    29a0:	a9 f3       	breq	.-22     	; 0x298c <__divsf3_pse+0x10>
    29a2:	33 d0       	rcall	.+102    	; 0x2a0a <__divsf3_pse+0x8e>
    29a4:	0e 2e       	mov	r0, r30
    29a6:	3a f0       	brmi	.+14     	; 0x29b6 <__divsf3_pse+0x3a>
    29a8:	e0 e8       	ldi	r30, 0x80	; 128
    29aa:	30 d0       	rcall	.+96     	; 0x2a0c <__divsf3_pse+0x90>
    29ac:	91 50       	subi	r25, 0x01	; 1
    29ae:	50 40       	sbci	r21, 0x00	; 0
    29b0:	e6 95       	lsr	r30
    29b2:	00 1c       	adc	r0, r0
    29b4:	ca f7       	brpl	.-14     	; 0x29a8 <__divsf3_pse+0x2c>
    29b6:	29 d0       	rcall	.+82     	; 0x2a0a <__divsf3_pse+0x8e>
    29b8:	fe 2f       	mov	r31, r30
    29ba:	27 d0       	rcall	.+78     	; 0x2a0a <__divsf3_pse+0x8e>
    29bc:	66 0f       	add	r22, r22
    29be:	77 1f       	adc	r23, r23
    29c0:	88 1f       	adc	r24, r24
    29c2:	bb 1f       	adc	r27, r27
    29c4:	26 17       	cp	r18, r22
    29c6:	37 07       	cpc	r19, r23
    29c8:	48 07       	cpc	r20, r24
    29ca:	ab 07       	cpc	r26, r27
    29cc:	b0 e8       	ldi	r27, 0x80	; 128
    29ce:	09 f0       	breq	.+2      	; 0x29d2 <__divsf3_pse+0x56>
    29d0:	bb 0b       	sbc	r27, r27
    29d2:	80 2d       	mov	r24, r0
    29d4:	bf 01       	movw	r22, r30
    29d6:	ff 27       	eor	r31, r31
    29d8:	93 58       	subi	r25, 0x83	; 131
    29da:	5f 4f       	sbci	r21, 0xFF	; 255
    29dc:	2a f0       	brmi	.+10     	; 0x29e8 <__divsf3_pse+0x6c>
    29de:	9e 3f       	cpi	r25, 0xFE	; 254
    29e0:	51 05       	cpc	r21, r1
    29e2:	68 f0       	brcs	.+26     	; 0x29fe <__divsf3_pse+0x82>
    29e4:	b1 c0       	rjmp	.+354    	; 0x2b48 <__fp_inf>
    29e6:	fb c0       	rjmp	.+502    	; 0x2bde <__fp_szero>
    29e8:	5f 3f       	cpi	r21, 0xFF	; 255
    29ea:	ec f3       	brlt	.-6      	; 0x29e6 <__divsf3_pse+0x6a>
    29ec:	98 3e       	cpi	r25, 0xE8	; 232
    29ee:	dc f3       	brlt	.-10     	; 0x29e6 <__divsf3_pse+0x6a>
    29f0:	86 95       	lsr	r24
    29f2:	77 95       	ror	r23
    29f4:	67 95       	ror	r22
    29f6:	b7 95       	ror	r27
    29f8:	f7 95       	ror	r31
    29fa:	9f 5f       	subi	r25, 0xFF	; 255
    29fc:	c9 f7       	brne	.-14     	; 0x29f0 <__divsf3_pse+0x74>
    29fe:	88 0f       	add	r24, r24
    2a00:	91 1d       	adc	r25, r1
    2a02:	96 95       	lsr	r25
    2a04:	87 95       	ror	r24
    2a06:	97 f9       	bld	r25, 7
    2a08:	08 95       	ret
    2a0a:	e1 e0       	ldi	r30, 0x01	; 1
    2a0c:	66 0f       	add	r22, r22
    2a0e:	77 1f       	adc	r23, r23
    2a10:	88 1f       	adc	r24, r24
    2a12:	bb 1f       	adc	r27, r27
    2a14:	62 17       	cp	r22, r18
    2a16:	73 07       	cpc	r23, r19
    2a18:	84 07       	cpc	r24, r20
    2a1a:	ba 07       	cpc	r27, r26
    2a1c:	20 f0       	brcs	.+8      	; 0x2a26 <__divsf3_pse+0xaa>
    2a1e:	62 1b       	sub	r22, r18
    2a20:	73 0b       	sbc	r23, r19
    2a22:	84 0b       	sbc	r24, r20
    2a24:	ba 0b       	sbc	r27, r26
    2a26:	ee 1f       	adc	r30, r30
    2a28:	88 f7       	brcc	.-30     	; 0x2a0c <__divsf3_pse+0x90>
    2a2a:	e0 95       	com	r30
    2a2c:	08 95       	ret

00002a2e <__fixunssfsi>:
    2a2e:	bc d0       	rcall	.+376    	; 0x2ba8 <__fp_splitA>
    2a30:	88 f0       	brcs	.+34     	; 0x2a54 <__fixunssfsi+0x26>
    2a32:	9f 57       	subi	r25, 0x7F	; 127
    2a34:	90 f0       	brcs	.+36     	; 0x2a5a <__fixunssfsi+0x2c>
    2a36:	b9 2f       	mov	r27, r25
    2a38:	99 27       	eor	r25, r25
    2a3a:	b7 51       	subi	r27, 0x17	; 23
    2a3c:	a0 f0       	brcs	.+40     	; 0x2a66 <__fixunssfsi+0x38>
    2a3e:	d1 f0       	breq	.+52     	; 0x2a74 <__fixunssfsi+0x46>
    2a40:	66 0f       	add	r22, r22
    2a42:	77 1f       	adc	r23, r23
    2a44:	88 1f       	adc	r24, r24
    2a46:	99 1f       	adc	r25, r25
    2a48:	1a f0       	brmi	.+6      	; 0x2a50 <__fixunssfsi+0x22>
    2a4a:	ba 95       	dec	r27
    2a4c:	c9 f7       	brne	.-14     	; 0x2a40 <__fixunssfsi+0x12>
    2a4e:	12 c0       	rjmp	.+36     	; 0x2a74 <__fixunssfsi+0x46>
    2a50:	b1 30       	cpi	r27, 0x01	; 1
    2a52:	81 f0       	breq	.+32     	; 0x2a74 <__fixunssfsi+0x46>
    2a54:	c3 d0       	rcall	.+390    	; 0x2bdc <__fp_zero>
    2a56:	b1 e0       	ldi	r27, 0x01	; 1
    2a58:	08 95       	ret
    2a5a:	c0 c0       	rjmp	.+384    	; 0x2bdc <__fp_zero>
    2a5c:	67 2f       	mov	r22, r23
    2a5e:	78 2f       	mov	r23, r24
    2a60:	88 27       	eor	r24, r24
    2a62:	b8 5f       	subi	r27, 0xF8	; 248
    2a64:	39 f0       	breq	.+14     	; 0x2a74 <__fixunssfsi+0x46>
    2a66:	b9 3f       	cpi	r27, 0xF9	; 249
    2a68:	cc f3       	brlt	.-14     	; 0x2a5c <__fixunssfsi+0x2e>
    2a6a:	86 95       	lsr	r24
    2a6c:	77 95       	ror	r23
    2a6e:	67 95       	ror	r22
    2a70:	b3 95       	inc	r27
    2a72:	d9 f7       	brne	.-10     	; 0x2a6a <__fixunssfsi+0x3c>
    2a74:	3e f4       	brtc	.+14     	; 0x2a84 <__fixunssfsi+0x56>
    2a76:	90 95       	com	r25
    2a78:	80 95       	com	r24
    2a7a:	70 95       	com	r23
    2a7c:	61 95       	neg	r22
    2a7e:	7f 4f       	sbci	r23, 0xFF	; 255
    2a80:	8f 4f       	sbci	r24, 0xFF	; 255
    2a82:	9f 4f       	sbci	r25, 0xFF	; 255
    2a84:	08 95       	ret

00002a86 <__floatunsisf>:
    2a86:	e8 94       	clt
    2a88:	09 c0       	rjmp	.+18     	; 0x2a9c <__floatsisf+0x12>

00002a8a <__floatsisf>:
    2a8a:	97 fb       	bst	r25, 7
    2a8c:	3e f4       	brtc	.+14     	; 0x2a9c <__floatsisf+0x12>
    2a8e:	90 95       	com	r25
    2a90:	80 95       	com	r24
    2a92:	70 95       	com	r23
    2a94:	61 95       	neg	r22
    2a96:	7f 4f       	sbci	r23, 0xFF	; 255
    2a98:	8f 4f       	sbci	r24, 0xFF	; 255
    2a9a:	9f 4f       	sbci	r25, 0xFF	; 255
    2a9c:	99 23       	and	r25, r25
    2a9e:	a9 f0       	breq	.+42     	; 0x2aca <__floatsisf+0x40>
    2aa0:	f9 2f       	mov	r31, r25
    2aa2:	96 e9       	ldi	r25, 0x96	; 150
    2aa4:	bb 27       	eor	r27, r27
    2aa6:	93 95       	inc	r25
    2aa8:	f6 95       	lsr	r31
    2aaa:	87 95       	ror	r24
    2aac:	77 95       	ror	r23
    2aae:	67 95       	ror	r22
    2ab0:	b7 95       	ror	r27
    2ab2:	f1 11       	cpse	r31, r1
    2ab4:	f8 cf       	rjmp	.-16     	; 0x2aa6 <__floatsisf+0x1c>
    2ab6:	fa f4       	brpl	.+62     	; 0x2af6 <__floatsisf+0x6c>
    2ab8:	bb 0f       	add	r27, r27
    2aba:	11 f4       	brne	.+4      	; 0x2ac0 <__floatsisf+0x36>
    2abc:	60 ff       	sbrs	r22, 0
    2abe:	1b c0       	rjmp	.+54     	; 0x2af6 <__floatsisf+0x6c>
    2ac0:	6f 5f       	subi	r22, 0xFF	; 255
    2ac2:	7f 4f       	sbci	r23, 0xFF	; 255
    2ac4:	8f 4f       	sbci	r24, 0xFF	; 255
    2ac6:	9f 4f       	sbci	r25, 0xFF	; 255
    2ac8:	16 c0       	rjmp	.+44     	; 0x2af6 <__floatsisf+0x6c>
    2aca:	88 23       	and	r24, r24
    2acc:	11 f0       	breq	.+4      	; 0x2ad2 <__floatsisf+0x48>
    2ace:	96 e9       	ldi	r25, 0x96	; 150
    2ad0:	11 c0       	rjmp	.+34     	; 0x2af4 <__floatsisf+0x6a>
    2ad2:	77 23       	and	r23, r23
    2ad4:	21 f0       	breq	.+8      	; 0x2ade <__floatsisf+0x54>
    2ad6:	9e e8       	ldi	r25, 0x8E	; 142
    2ad8:	87 2f       	mov	r24, r23
    2ada:	76 2f       	mov	r23, r22
    2adc:	05 c0       	rjmp	.+10     	; 0x2ae8 <__floatsisf+0x5e>
    2ade:	66 23       	and	r22, r22
    2ae0:	71 f0       	breq	.+28     	; 0x2afe <__floatsisf+0x74>
    2ae2:	96 e8       	ldi	r25, 0x86	; 134
    2ae4:	86 2f       	mov	r24, r22
    2ae6:	70 e0       	ldi	r23, 0x00	; 0
    2ae8:	60 e0       	ldi	r22, 0x00	; 0
    2aea:	2a f0       	brmi	.+10     	; 0x2af6 <__floatsisf+0x6c>
    2aec:	9a 95       	dec	r25
    2aee:	66 0f       	add	r22, r22
    2af0:	77 1f       	adc	r23, r23
    2af2:	88 1f       	adc	r24, r24
    2af4:	da f7       	brpl	.-10     	; 0x2aec <__floatsisf+0x62>
    2af6:	88 0f       	add	r24, r24
    2af8:	96 95       	lsr	r25
    2afa:	87 95       	ror	r24
    2afc:	97 f9       	bld	r25, 7
    2afe:	08 95       	ret

00002b00 <__fp_cmp>:
    2b00:	99 0f       	add	r25, r25
    2b02:	00 08       	sbc	r0, r0
    2b04:	55 0f       	add	r21, r21
    2b06:	aa 0b       	sbc	r26, r26
    2b08:	e0 e8       	ldi	r30, 0x80	; 128
    2b0a:	fe ef       	ldi	r31, 0xFE	; 254
    2b0c:	16 16       	cp	r1, r22
    2b0e:	17 06       	cpc	r1, r23
    2b10:	e8 07       	cpc	r30, r24
    2b12:	f9 07       	cpc	r31, r25
    2b14:	c0 f0       	brcs	.+48     	; 0x2b46 <__fp_cmp+0x46>
    2b16:	12 16       	cp	r1, r18
    2b18:	13 06       	cpc	r1, r19
    2b1a:	e4 07       	cpc	r30, r20
    2b1c:	f5 07       	cpc	r31, r21
    2b1e:	98 f0       	brcs	.+38     	; 0x2b46 <__fp_cmp+0x46>
    2b20:	62 1b       	sub	r22, r18
    2b22:	73 0b       	sbc	r23, r19
    2b24:	84 0b       	sbc	r24, r20
    2b26:	95 0b       	sbc	r25, r21
    2b28:	39 f4       	brne	.+14     	; 0x2b38 <__fp_cmp+0x38>
    2b2a:	0a 26       	eor	r0, r26
    2b2c:	61 f0       	breq	.+24     	; 0x2b46 <__fp_cmp+0x46>
    2b2e:	23 2b       	or	r18, r19
    2b30:	24 2b       	or	r18, r20
    2b32:	25 2b       	or	r18, r21
    2b34:	21 f4       	brne	.+8      	; 0x2b3e <__fp_cmp+0x3e>
    2b36:	08 95       	ret
    2b38:	0a 26       	eor	r0, r26
    2b3a:	09 f4       	brne	.+2      	; 0x2b3e <__fp_cmp+0x3e>
    2b3c:	a1 40       	sbci	r26, 0x01	; 1
    2b3e:	a6 95       	lsr	r26
    2b40:	8f ef       	ldi	r24, 0xFF	; 255
    2b42:	81 1d       	adc	r24, r1
    2b44:	81 1d       	adc	r24, r1
    2b46:	08 95       	ret

00002b48 <__fp_inf>:
    2b48:	97 f9       	bld	r25, 7
    2b4a:	9f 67       	ori	r25, 0x7F	; 127
    2b4c:	80 e8       	ldi	r24, 0x80	; 128
    2b4e:	70 e0       	ldi	r23, 0x00	; 0
    2b50:	60 e0       	ldi	r22, 0x00	; 0
    2b52:	08 95       	ret

00002b54 <__fp_nan>:
    2b54:	9f ef       	ldi	r25, 0xFF	; 255
    2b56:	80 ec       	ldi	r24, 0xC0	; 192
    2b58:	08 95       	ret

00002b5a <__fp_pscA>:
    2b5a:	00 24       	eor	r0, r0
    2b5c:	0a 94       	dec	r0
    2b5e:	16 16       	cp	r1, r22
    2b60:	17 06       	cpc	r1, r23
    2b62:	18 06       	cpc	r1, r24
    2b64:	09 06       	cpc	r0, r25
    2b66:	08 95       	ret

00002b68 <__fp_pscB>:
    2b68:	00 24       	eor	r0, r0
    2b6a:	0a 94       	dec	r0
    2b6c:	12 16       	cp	r1, r18
    2b6e:	13 06       	cpc	r1, r19
    2b70:	14 06       	cpc	r1, r20
    2b72:	05 06       	cpc	r0, r21
    2b74:	08 95       	ret

00002b76 <__fp_round>:
    2b76:	09 2e       	mov	r0, r25
    2b78:	03 94       	inc	r0
    2b7a:	00 0c       	add	r0, r0
    2b7c:	11 f4       	brne	.+4      	; 0x2b82 <__fp_round+0xc>
    2b7e:	88 23       	and	r24, r24
    2b80:	52 f0       	brmi	.+20     	; 0x2b96 <__fp_round+0x20>
    2b82:	bb 0f       	add	r27, r27
    2b84:	40 f4       	brcc	.+16     	; 0x2b96 <__fp_round+0x20>
    2b86:	bf 2b       	or	r27, r31
    2b88:	11 f4       	brne	.+4      	; 0x2b8e <__fp_round+0x18>
    2b8a:	60 ff       	sbrs	r22, 0
    2b8c:	04 c0       	rjmp	.+8      	; 0x2b96 <__fp_round+0x20>
    2b8e:	6f 5f       	subi	r22, 0xFF	; 255
    2b90:	7f 4f       	sbci	r23, 0xFF	; 255
    2b92:	8f 4f       	sbci	r24, 0xFF	; 255
    2b94:	9f 4f       	sbci	r25, 0xFF	; 255
    2b96:	08 95       	ret

00002b98 <__fp_split3>:
    2b98:	57 fd       	sbrc	r21, 7
    2b9a:	90 58       	subi	r25, 0x80	; 128
    2b9c:	44 0f       	add	r20, r20
    2b9e:	55 1f       	adc	r21, r21
    2ba0:	59 f0       	breq	.+22     	; 0x2bb8 <__fp_splitA+0x10>
    2ba2:	5f 3f       	cpi	r21, 0xFF	; 255
    2ba4:	71 f0       	breq	.+28     	; 0x2bc2 <__fp_splitA+0x1a>
    2ba6:	47 95       	ror	r20

00002ba8 <__fp_splitA>:
    2ba8:	88 0f       	add	r24, r24
    2baa:	97 fb       	bst	r25, 7
    2bac:	99 1f       	adc	r25, r25
    2bae:	61 f0       	breq	.+24     	; 0x2bc8 <__fp_splitA+0x20>
    2bb0:	9f 3f       	cpi	r25, 0xFF	; 255
    2bb2:	79 f0       	breq	.+30     	; 0x2bd2 <__fp_splitA+0x2a>
    2bb4:	87 95       	ror	r24
    2bb6:	08 95       	ret
    2bb8:	12 16       	cp	r1, r18
    2bba:	13 06       	cpc	r1, r19
    2bbc:	14 06       	cpc	r1, r20
    2bbe:	55 1f       	adc	r21, r21
    2bc0:	f2 cf       	rjmp	.-28     	; 0x2ba6 <__fp_split3+0xe>
    2bc2:	46 95       	lsr	r20
    2bc4:	f1 df       	rcall	.-30     	; 0x2ba8 <__fp_splitA>
    2bc6:	08 c0       	rjmp	.+16     	; 0x2bd8 <__fp_splitA+0x30>
    2bc8:	16 16       	cp	r1, r22
    2bca:	17 06       	cpc	r1, r23
    2bcc:	18 06       	cpc	r1, r24
    2bce:	99 1f       	adc	r25, r25
    2bd0:	f1 cf       	rjmp	.-30     	; 0x2bb4 <__fp_splitA+0xc>
    2bd2:	86 95       	lsr	r24
    2bd4:	71 05       	cpc	r23, r1
    2bd6:	61 05       	cpc	r22, r1
    2bd8:	08 94       	sec
    2bda:	08 95       	ret

00002bdc <__fp_zero>:
    2bdc:	e8 94       	clt

00002bde <__fp_szero>:
    2bde:	bb 27       	eor	r27, r27
    2be0:	66 27       	eor	r22, r22
    2be2:	77 27       	eor	r23, r23
    2be4:	cb 01       	movw	r24, r22
    2be6:	97 f9       	bld	r25, 7
    2be8:	08 95       	ret

00002bea <__gesf2>:
    2bea:	8a df       	rcall	.-236    	; 0x2b00 <__fp_cmp>
    2bec:	08 f4       	brcc	.+2      	; 0x2bf0 <__gesf2+0x6>
    2bee:	8f ef       	ldi	r24, 0xFF	; 255
    2bf0:	08 95       	ret

00002bf2 <__mulsf3>:
    2bf2:	0b d0       	rcall	.+22     	; 0x2c0a <__mulsf3x>
    2bf4:	c0 cf       	rjmp	.-128    	; 0x2b76 <__fp_round>
    2bf6:	b1 df       	rcall	.-158    	; 0x2b5a <__fp_pscA>
    2bf8:	28 f0       	brcs	.+10     	; 0x2c04 <__mulsf3+0x12>
    2bfa:	b6 df       	rcall	.-148    	; 0x2b68 <__fp_pscB>
    2bfc:	18 f0       	brcs	.+6      	; 0x2c04 <__mulsf3+0x12>
    2bfe:	95 23       	and	r25, r21
    2c00:	09 f0       	breq	.+2      	; 0x2c04 <__mulsf3+0x12>
    2c02:	a2 cf       	rjmp	.-188    	; 0x2b48 <__fp_inf>
    2c04:	a7 cf       	rjmp	.-178    	; 0x2b54 <__fp_nan>
    2c06:	11 24       	eor	r1, r1
    2c08:	ea cf       	rjmp	.-44     	; 0x2bde <__fp_szero>

00002c0a <__mulsf3x>:
    2c0a:	c6 df       	rcall	.-116    	; 0x2b98 <__fp_split3>
    2c0c:	a0 f3       	brcs	.-24     	; 0x2bf6 <__mulsf3+0x4>

00002c0e <__mulsf3_pse>:
    2c0e:	95 9f       	mul	r25, r21
    2c10:	d1 f3       	breq	.-12     	; 0x2c06 <__mulsf3+0x14>
    2c12:	95 0f       	add	r25, r21
    2c14:	50 e0       	ldi	r21, 0x00	; 0
    2c16:	55 1f       	adc	r21, r21
    2c18:	62 9f       	mul	r22, r18
    2c1a:	f0 01       	movw	r30, r0
    2c1c:	72 9f       	mul	r23, r18
    2c1e:	bb 27       	eor	r27, r27
    2c20:	f0 0d       	add	r31, r0
    2c22:	b1 1d       	adc	r27, r1
    2c24:	63 9f       	mul	r22, r19
    2c26:	aa 27       	eor	r26, r26
    2c28:	f0 0d       	add	r31, r0
    2c2a:	b1 1d       	adc	r27, r1
    2c2c:	aa 1f       	adc	r26, r26
    2c2e:	64 9f       	mul	r22, r20
    2c30:	66 27       	eor	r22, r22
    2c32:	b0 0d       	add	r27, r0
    2c34:	a1 1d       	adc	r26, r1
    2c36:	66 1f       	adc	r22, r22
    2c38:	82 9f       	mul	r24, r18
    2c3a:	22 27       	eor	r18, r18
    2c3c:	b0 0d       	add	r27, r0
    2c3e:	a1 1d       	adc	r26, r1
    2c40:	62 1f       	adc	r22, r18
    2c42:	73 9f       	mul	r23, r19
    2c44:	b0 0d       	add	r27, r0
    2c46:	a1 1d       	adc	r26, r1
    2c48:	62 1f       	adc	r22, r18
    2c4a:	83 9f       	mul	r24, r19
    2c4c:	a0 0d       	add	r26, r0
    2c4e:	61 1d       	adc	r22, r1
    2c50:	22 1f       	adc	r18, r18
    2c52:	74 9f       	mul	r23, r20
    2c54:	33 27       	eor	r19, r19
    2c56:	a0 0d       	add	r26, r0
    2c58:	61 1d       	adc	r22, r1
    2c5a:	23 1f       	adc	r18, r19
    2c5c:	84 9f       	mul	r24, r20
    2c5e:	60 0d       	add	r22, r0
    2c60:	21 1d       	adc	r18, r1
    2c62:	82 2f       	mov	r24, r18
    2c64:	76 2f       	mov	r23, r22
    2c66:	6a 2f       	mov	r22, r26
    2c68:	11 24       	eor	r1, r1
    2c6a:	9f 57       	subi	r25, 0x7F	; 127
    2c6c:	50 40       	sbci	r21, 0x00	; 0
    2c6e:	8a f0       	brmi	.+34     	; 0x2c92 <__mulsf3_pse+0x84>
    2c70:	e1 f0       	breq	.+56     	; 0x2caa <__mulsf3_pse+0x9c>
    2c72:	88 23       	and	r24, r24
    2c74:	4a f0       	brmi	.+18     	; 0x2c88 <__mulsf3_pse+0x7a>
    2c76:	ee 0f       	add	r30, r30
    2c78:	ff 1f       	adc	r31, r31
    2c7a:	bb 1f       	adc	r27, r27
    2c7c:	66 1f       	adc	r22, r22
    2c7e:	77 1f       	adc	r23, r23
    2c80:	88 1f       	adc	r24, r24
    2c82:	91 50       	subi	r25, 0x01	; 1
    2c84:	50 40       	sbci	r21, 0x00	; 0
    2c86:	a9 f7       	brne	.-22     	; 0x2c72 <__mulsf3_pse+0x64>
    2c88:	9e 3f       	cpi	r25, 0xFE	; 254
    2c8a:	51 05       	cpc	r21, r1
    2c8c:	70 f0       	brcs	.+28     	; 0x2caa <__mulsf3_pse+0x9c>
    2c8e:	5c cf       	rjmp	.-328    	; 0x2b48 <__fp_inf>
    2c90:	a6 cf       	rjmp	.-180    	; 0x2bde <__fp_szero>
    2c92:	5f 3f       	cpi	r21, 0xFF	; 255
    2c94:	ec f3       	brlt	.-6      	; 0x2c90 <__mulsf3_pse+0x82>
    2c96:	98 3e       	cpi	r25, 0xE8	; 232
    2c98:	dc f3       	brlt	.-10     	; 0x2c90 <__mulsf3_pse+0x82>
    2c9a:	86 95       	lsr	r24
    2c9c:	77 95       	ror	r23
    2c9e:	67 95       	ror	r22
    2ca0:	b7 95       	ror	r27
    2ca2:	f7 95       	ror	r31
    2ca4:	e7 95       	ror	r30
    2ca6:	9f 5f       	subi	r25, 0xFF	; 255
    2ca8:	c1 f7       	brne	.-16     	; 0x2c9a <__mulsf3_pse+0x8c>
    2caa:	fe 2b       	or	r31, r30
    2cac:	88 0f       	add	r24, r24
    2cae:	91 1d       	adc	r25, r1
    2cb0:	96 95       	lsr	r25
    2cb2:	87 95       	ror	r24
    2cb4:	97 f9       	bld	r25, 7
    2cb6:	08 95       	ret

00002cb8 <__udivmodhi4>:
    2cb8:	aa 1b       	sub	r26, r26
    2cba:	bb 1b       	sub	r27, r27
    2cbc:	51 e1       	ldi	r21, 0x11	; 17
    2cbe:	07 c0       	rjmp	.+14     	; 0x2cce <__udivmodhi4_ep>

00002cc0 <__udivmodhi4_loop>:
    2cc0:	aa 1f       	adc	r26, r26
    2cc2:	bb 1f       	adc	r27, r27
    2cc4:	a6 17       	cp	r26, r22
    2cc6:	b7 07       	cpc	r27, r23
    2cc8:	10 f0       	brcs	.+4      	; 0x2cce <__udivmodhi4_ep>
    2cca:	a6 1b       	sub	r26, r22
    2ccc:	b7 0b       	sbc	r27, r23

00002cce <__udivmodhi4_ep>:
    2cce:	88 1f       	adc	r24, r24
    2cd0:	99 1f       	adc	r25, r25
    2cd2:	5a 95       	dec	r21
    2cd4:	a9 f7       	brne	.-22     	; 0x2cc0 <__udivmodhi4_loop>
    2cd6:	80 95       	com	r24
    2cd8:	90 95       	com	r25
    2cda:	bc 01       	movw	r22, r24
    2cdc:	cd 01       	movw	r24, r26
    2cde:	08 95       	ret

00002ce0 <__udivmodsi4>:
    2ce0:	a1 e2       	ldi	r26, 0x21	; 33
    2ce2:	1a 2e       	mov	r1, r26
    2ce4:	aa 1b       	sub	r26, r26
    2ce6:	bb 1b       	sub	r27, r27
    2ce8:	fd 01       	movw	r30, r26
    2cea:	0d c0       	rjmp	.+26     	; 0x2d06 <__udivmodsi4_ep>

00002cec <__udivmodsi4_loop>:
    2cec:	aa 1f       	adc	r26, r26
    2cee:	bb 1f       	adc	r27, r27
    2cf0:	ee 1f       	adc	r30, r30
    2cf2:	ff 1f       	adc	r31, r31
    2cf4:	a2 17       	cp	r26, r18
    2cf6:	b3 07       	cpc	r27, r19
    2cf8:	e4 07       	cpc	r30, r20
    2cfa:	f5 07       	cpc	r31, r21
    2cfc:	20 f0       	brcs	.+8      	; 0x2d06 <__udivmodsi4_ep>
    2cfe:	a2 1b       	sub	r26, r18
    2d00:	b3 0b       	sbc	r27, r19
    2d02:	e4 0b       	sbc	r30, r20
    2d04:	f5 0b       	sbc	r31, r21

00002d06 <__udivmodsi4_ep>:
    2d06:	66 1f       	adc	r22, r22
    2d08:	77 1f       	adc	r23, r23
    2d0a:	88 1f       	adc	r24, r24
    2d0c:	99 1f       	adc	r25, r25
    2d0e:	1a 94       	dec	r1
    2d10:	69 f7       	brne	.-38     	; 0x2cec <__udivmodsi4_loop>
    2d12:	60 95       	com	r22
    2d14:	70 95       	com	r23
    2d16:	80 95       	com	r24
    2d18:	90 95       	com	r25
    2d1a:	9b 01       	movw	r18, r22
    2d1c:	ac 01       	movw	r20, r24
    2d1e:	bd 01       	movw	r22, r26
    2d20:	cf 01       	movw	r24, r30
    2d22:	08 95       	ret

00002d24 <__tablejump2__>:
    2d24:	ee 0f       	add	r30, r30
    2d26:	ff 1f       	adc	r31, r31
    2d28:	88 1f       	adc	r24, r24
    2d2a:	8b bf       	out	0x3b, r24	; 59
    2d2c:	07 90       	elpm	r0, Z+
    2d2e:	f6 91       	elpm	r31, Z
    2d30:	e0 2d       	mov	r30, r0
    2d32:	19 94       	eijmp

00002d34 <malloc>:
    2d34:	0f 93       	push	r16
    2d36:	1f 93       	push	r17
    2d38:	cf 93       	push	r28
    2d3a:	df 93       	push	r29
    2d3c:	82 30       	cpi	r24, 0x02	; 2
    2d3e:	91 05       	cpc	r25, r1
    2d40:	10 f4       	brcc	.+4      	; 0x2d46 <malloc+0x12>
    2d42:	82 e0       	ldi	r24, 0x02	; 2
    2d44:	90 e0       	ldi	r25, 0x00	; 0
    2d46:	e0 91 54 03 	lds	r30, 0x0354	; 0x800354 <__flp>
    2d4a:	f0 91 55 03 	lds	r31, 0x0355	; 0x800355 <__flp+0x1>
    2d4e:	20 e0       	ldi	r18, 0x00	; 0
    2d50:	30 e0       	ldi	r19, 0x00	; 0
    2d52:	a0 e0       	ldi	r26, 0x00	; 0
    2d54:	b0 e0       	ldi	r27, 0x00	; 0
    2d56:	30 97       	sbiw	r30, 0x00	; 0
    2d58:	19 f1       	breq	.+70     	; 0x2da0 <malloc+0x6c>
    2d5a:	40 81       	ld	r20, Z
    2d5c:	51 81       	ldd	r21, Z+1	; 0x01
    2d5e:	02 81       	ldd	r16, Z+2	; 0x02
    2d60:	13 81       	ldd	r17, Z+3	; 0x03
    2d62:	48 17       	cp	r20, r24
    2d64:	59 07       	cpc	r21, r25
    2d66:	c8 f0       	brcs	.+50     	; 0x2d9a <malloc+0x66>
    2d68:	84 17       	cp	r24, r20
    2d6a:	95 07       	cpc	r25, r21
    2d6c:	69 f4       	brne	.+26     	; 0x2d88 <malloc+0x54>
    2d6e:	10 97       	sbiw	r26, 0x00	; 0
    2d70:	31 f0       	breq	.+12     	; 0x2d7e <malloc+0x4a>
    2d72:	12 96       	adiw	r26, 0x02	; 2
    2d74:	0c 93       	st	X, r16
    2d76:	12 97       	sbiw	r26, 0x02	; 2
    2d78:	13 96       	adiw	r26, 0x03	; 3
    2d7a:	1c 93       	st	X, r17
    2d7c:	27 c0       	rjmp	.+78     	; 0x2dcc <malloc+0x98>
    2d7e:	00 93 54 03 	sts	0x0354, r16	; 0x800354 <__flp>
    2d82:	10 93 55 03 	sts	0x0355, r17	; 0x800355 <__flp+0x1>
    2d86:	22 c0       	rjmp	.+68     	; 0x2dcc <malloc+0x98>
    2d88:	21 15       	cp	r18, r1
    2d8a:	31 05       	cpc	r19, r1
    2d8c:	19 f0       	breq	.+6      	; 0x2d94 <malloc+0x60>
    2d8e:	42 17       	cp	r20, r18
    2d90:	53 07       	cpc	r21, r19
    2d92:	18 f4       	brcc	.+6      	; 0x2d9a <malloc+0x66>
    2d94:	9a 01       	movw	r18, r20
    2d96:	bd 01       	movw	r22, r26
    2d98:	ef 01       	movw	r28, r30
    2d9a:	df 01       	movw	r26, r30
    2d9c:	f8 01       	movw	r30, r16
    2d9e:	db cf       	rjmp	.-74     	; 0x2d56 <malloc+0x22>
    2da0:	21 15       	cp	r18, r1
    2da2:	31 05       	cpc	r19, r1
    2da4:	f9 f0       	breq	.+62     	; 0x2de4 <malloc+0xb0>
    2da6:	28 1b       	sub	r18, r24
    2da8:	39 0b       	sbc	r19, r25
    2daa:	24 30       	cpi	r18, 0x04	; 4
    2dac:	31 05       	cpc	r19, r1
    2dae:	80 f4       	brcc	.+32     	; 0x2dd0 <malloc+0x9c>
    2db0:	8a 81       	ldd	r24, Y+2	; 0x02
    2db2:	9b 81       	ldd	r25, Y+3	; 0x03
    2db4:	61 15       	cp	r22, r1
    2db6:	71 05       	cpc	r23, r1
    2db8:	21 f0       	breq	.+8      	; 0x2dc2 <malloc+0x8e>
    2dba:	fb 01       	movw	r30, r22
    2dbc:	93 83       	std	Z+3, r25	; 0x03
    2dbe:	82 83       	std	Z+2, r24	; 0x02
    2dc0:	04 c0       	rjmp	.+8      	; 0x2dca <malloc+0x96>
    2dc2:	90 93 55 03 	sts	0x0355, r25	; 0x800355 <__flp+0x1>
    2dc6:	80 93 54 03 	sts	0x0354, r24	; 0x800354 <__flp>
    2dca:	fe 01       	movw	r30, r28
    2dcc:	32 96       	adiw	r30, 0x02	; 2
    2dce:	44 c0       	rjmp	.+136    	; 0x2e58 <malloc+0x124>
    2dd0:	fe 01       	movw	r30, r28
    2dd2:	e2 0f       	add	r30, r18
    2dd4:	f3 1f       	adc	r31, r19
    2dd6:	81 93       	st	Z+, r24
    2dd8:	91 93       	st	Z+, r25
    2dda:	22 50       	subi	r18, 0x02	; 2
    2ddc:	31 09       	sbc	r19, r1
    2dde:	39 83       	std	Y+1, r19	; 0x01
    2de0:	28 83       	st	Y, r18
    2de2:	3a c0       	rjmp	.+116    	; 0x2e58 <malloc+0x124>
    2de4:	20 91 52 03 	lds	r18, 0x0352	; 0x800352 <__brkval>
    2de8:	30 91 53 03 	lds	r19, 0x0353	; 0x800353 <__brkval+0x1>
    2dec:	23 2b       	or	r18, r19
    2dee:	41 f4       	brne	.+16     	; 0x2e00 <malloc+0xcc>
    2df0:	20 91 02 02 	lds	r18, 0x0202	; 0x800202 <__malloc_heap_start>
    2df4:	30 91 03 02 	lds	r19, 0x0203	; 0x800203 <__malloc_heap_start+0x1>
    2df8:	30 93 53 03 	sts	0x0353, r19	; 0x800353 <__brkval+0x1>
    2dfc:	20 93 52 03 	sts	0x0352, r18	; 0x800352 <__brkval>
    2e00:	20 91 00 02 	lds	r18, 0x0200	; 0x800200 <__DATA_REGION_ORIGIN__>
    2e04:	30 91 01 02 	lds	r19, 0x0201	; 0x800201 <__DATA_REGION_ORIGIN__+0x1>
    2e08:	21 15       	cp	r18, r1
    2e0a:	31 05       	cpc	r19, r1
    2e0c:	41 f4       	brne	.+16     	; 0x2e1e <malloc+0xea>
    2e0e:	2d b7       	in	r18, 0x3d	; 61
    2e10:	3e b7       	in	r19, 0x3e	; 62
    2e12:	40 91 04 02 	lds	r20, 0x0204	; 0x800204 <__malloc_margin>
    2e16:	50 91 05 02 	lds	r21, 0x0205	; 0x800205 <__malloc_margin+0x1>
    2e1a:	24 1b       	sub	r18, r20
    2e1c:	35 0b       	sbc	r19, r21
    2e1e:	e0 91 52 03 	lds	r30, 0x0352	; 0x800352 <__brkval>
    2e22:	f0 91 53 03 	lds	r31, 0x0353	; 0x800353 <__brkval+0x1>
    2e26:	e2 17       	cp	r30, r18
    2e28:	f3 07       	cpc	r31, r19
    2e2a:	a0 f4       	brcc	.+40     	; 0x2e54 <malloc+0x120>
    2e2c:	2e 1b       	sub	r18, r30
    2e2e:	3f 0b       	sbc	r19, r31
    2e30:	28 17       	cp	r18, r24
    2e32:	39 07       	cpc	r19, r25
    2e34:	78 f0       	brcs	.+30     	; 0x2e54 <malloc+0x120>
    2e36:	ac 01       	movw	r20, r24
    2e38:	4e 5f       	subi	r20, 0xFE	; 254
    2e3a:	5f 4f       	sbci	r21, 0xFF	; 255
    2e3c:	24 17       	cp	r18, r20
    2e3e:	35 07       	cpc	r19, r21
    2e40:	48 f0       	brcs	.+18     	; 0x2e54 <malloc+0x120>
    2e42:	4e 0f       	add	r20, r30
    2e44:	5f 1f       	adc	r21, r31
    2e46:	50 93 53 03 	sts	0x0353, r21	; 0x800353 <__brkval+0x1>
    2e4a:	40 93 52 03 	sts	0x0352, r20	; 0x800352 <__brkval>
    2e4e:	81 93       	st	Z+, r24
    2e50:	91 93       	st	Z+, r25
    2e52:	02 c0       	rjmp	.+4      	; 0x2e58 <malloc+0x124>
    2e54:	e0 e0       	ldi	r30, 0x00	; 0
    2e56:	f0 e0       	ldi	r31, 0x00	; 0
    2e58:	cf 01       	movw	r24, r30
    2e5a:	df 91       	pop	r29
    2e5c:	cf 91       	pop	r28
    2e5e:	1f 91       	pop	r17
    2e60:	0f 91       	pop	r16
    2e62:	08 95       	ret

00002e64 <free>:
    2e64:	cf 93       	push	r28
    2e66:	df 93       	push	r29
    2e68:	00 97       	sbiw	r24, 0x00	; 0
    2e6a:	09 f4       	brne	.+2      	; 0x2e6e <free+0xa>
    2e6c:	81 c0       	rjmp	.+258    	; 0x2f70 <free+0x10c>
    2e6e:	fc 01       	movw	r30, r24
    2e70:	32 97       	sbiw	r30, 0x02	; 2
    2e72:	13 82       	std	Z+3, r1	; 0x03
    2e74:	12 82       	std	Z+2, r1	; 0x02
    2e76:	a0 91 54 03 	lds	r26, 0x0354	; 0x800354 <__flp>
    2e7a:	b0 91 55 03 	lds	r27, 0x0355	; 0x800355 <__flp+0x1>
    2e7e:	10 97       	sbiw	r26, 0x00	; 0
    2e80:	81 f4       	brne	.+32     	; 0x2ea2 <free+0x3e>
    2e82:	20 81       	ld	r18, Z
    2e84:	31 81       	ldd	r19, Z+1	; 0x01
    2e86:	82 0f       	add	r24, r18
    2e88:	93 1f       	adc	r25, r19
    2e8a:	20 91 52 03 	lds	r18, 0x0352	; 0x800352 <__brkval>
    2e8e:	30 91 53 03 	lds	r19, 0x0353	; 0x800353 <__brkval+0x1>
    2e92:	28 17       	cp	r18, r24
    2e94:	39 07       	cpc	r19, r25
    2e96:	51 f5       	brne	.+84     	; 0x2eec <free+0x88>
    2e98:	f0 93 53 03 	sts	0x0353, r31	; 0x800353 <__brkval+0x1>
    2e9c:	e0 93 52 03 	sts	0x0352, r30	; 0x800352 <__brkval>
    2ea0:	67 c0       	rjmp	.+206    	; 0x2f70 <free+0x10c>
    2ea2:	ed 01       	movw	r28, r26
    2ea4:	20 e0       	ldi	r18, 0x00	; 0
    2ea6:	30 e0       	ldi	r19, 0x00	; 0
    2ea8:	ce 17       	cp	r28, r30
    2eaa:	df 07       	cpc	r29, r31
    2eac:	40 f4       	brcc	.+16     	; 0x2ebe <free+0x5a>
    2eae:	4a 81       	ldd	r20, Y+2	; 0x02
    2eb0:	5b 81       	ldd	r21, Y+3	; 0x03
    2eb2:	9e 01       	movw	r18, r28
    2eb4:	41 15       	cp	r20, r1
    2eb6:	51 05       	cpc	r21, r1
    2eb8:	f1 f0       	breq	.+60     	; 0x2ef6 <free+0x92>
    2eba:	ea 01       	movw	r28, r20
    2ebc:	f5 cf       	rjmp	.-22     	; 0x2ea8 <free+0x44>
    2ebe:	d3 83       	std	Z+3, r29	; 0x03
    2ec0:	c2 83       	std	Z+2, r28	; 0x02
    2ec2:	40 81       	ld	r20, Z
    2ec4:	51 81       	ldd	r21, Z+1	; 0x01
    2ec6:	84 0f       	add	r24, r20
    2ec8:	95 1f       	adc	r25, r21
    2eca:	c8 17       	cp	r28, r24
    2ecc:	d9 07       	cpc	r29, r25
    2ece:	59 f4       	brne	.+22     	; 0x2ee6 <free+0x82>
    2ed0:	88 81       	ld	r24, Y
    2ed2:	99 81       	ldd	r25, Y+1	; 0x01
    2ed4:	84 0f       	add	r24, r20
    2ed6:	95 1f       	adc	r25, r21
    2ed8:	02 96       	adiw	r24, 0x02	; 2
    2eda:	91 83       	std	Z+1, r25	; 0x01
    2edc:	80 83       	st	Z, r24
    2ede:	8a 81       	ldd	r24, Y+2	; 0x02
    2ee0:	9b 81       	ldd	r25, Y+3	; 0x03
    2ee2:	93 83       	std	Z+3, r25	; 0x03
    2ee4:	82 83       	std	Z+2, r24	; 0x02
    2ee6:	21 15       	cp	r18, r1
    2ee8:	31 05       	cpc	r19, r1
    2eea:	29 f4       	brne	.+10     	; 0x2ef6 <free+0x92>
    2eec:	f0 93 55 03 	sts	0x0355, r31	; 0x800355 <__flp+0x1>
    2ef0:	e0 93 54 03 	sts	0x0354, r30	; 0x800354 <__flp>
    2ef4:	3d c0       	rjmp	.+122    	; 0x2f70 <free+0x10c>
    2ef6:	e9 01       	movw	r28, r18
    2ef8:	fb 83       	std	Y+3, r31	; 0x03
    2efa:	ea 83       	std	Y+2, r30	; 0x02
    2efc:	49 91       	ld	r20, Y+
    2efe:	59 91       	ld	r21, Y+
    2f00:	c4 0f       	add	r28, r20
    2f02:	d5 1f       	adc	r29, r21
    2f04:	ec 17       	cp	r30, r28
    2f06:	fd 07       	cpc	r31, r29
    2f08:	61 f4       	brne	.+24     	; 0x2f22 <free+0xbe>
    2f0a:	80 81       	ld	r24, Z
    2f0c:	91 81       	ldd	r25, Z+1	; 0x01
    2f0e:	84 0f       	add	r24, r20
    2f10:	95 1f       	adc	r25, r21
    2f12:	02 96       	adiw	r24, 0x02	; 2
    2f14:	e9 01       	movw	r28, r18
    2f16:	99 83       	std	Y+1, r25	; 0x01
    2f18:	88 83       	st	Y, r24
    2f1a:	82 81       	ldd	r24, Z+2	; 0x02
    2f1c:	93 81       	ldd	r25, Z+3	; 0x03
    2f1e:	9b 83       	std	Y+3, r25	; 0x03
    2f20:	8a 83       	std	Y+2, r24	; 0x02
    2f22:	e0 e0       	ldi	r30, 0x00	; 0
    2f24:	f0 e0       	ldi	r31, 0x00	; 0
    2f26:	12 96       	adiw	r26, 0x02	; 2
    2f28:	8d 91       	ld	r24, X+
    2f2a:	9c 91       	ld	r25, X
    2f2c:	13 97       	sbiw	r26, 0x03	; 3
    2f2e:	00 97       	sbiw	r24, 0x00	; 0
    2f30:	19 f0       	breq	.+6      	; 0x2f38 <free+0xd4>
    2f32:	fd 01       	movw	r30, r26
    2f34:	dc 01       	movw	r26, r24
    2f36:	f7 cf       	rjmp	.-18     	; 0x2f26 <free+0xc2>
    2f38:	8d 91       	ld	r24, X+
    2f3a:	9c 91       	ld	r25, X
    2f3c:	11 97       	sbiw	r26, 0x01	; 1
    2f3e:	9d 01       	movw	r18, r26
    2f40:	2e 5f       	subi	r18, 0xFE	; 254
    2f42:	3f 4f       	sbci	r19, 0xFF	; 255
    2f44:	82 0f       	add	r24, r18
    2f46:	93 1f       	adc	r25, r19
    2f48:	20 91 52 03 	lds	r18, 0x0352	; 0x800352 <__brkval>
    2f4c:	30 91 53 03 	lds	r19, 0x0353	; 0x800353 <__brkval+0x1>
    2f50:	28 17       	cp	r18, r24
    2f52:	39 07       	cpc	r19, r25
    2f54:	69 f4       	brne	.+26     	; 0x2f70 <free+0x10c>
    2f56:	30 97       	sbiw	r30, 0x00	; 0
    2f58:	29 f4       	brne	.+10     	; 0x2f64 <free+0x100>
    2f5a:	10 92 55 03 	sts	0x0355, r1	; 0x800355 <__flp+0x1>
    2f5e:	10 92 54 03 	sts	0x0354, r1	; 0x800354 <__flp>
    2f62:	02 c0       	rjmp	.+4      	; 0x2f68 <free+0x104>
    2f64:	13 82       	std	Z+3, r1	; 0x03
    2f66:	12 82       	std	Z+2, r1	; 0x02
    2f68:	b0 93 53 03 	sts	0x0353, r27	; 0x800353 <__brkval+0x1>
    2f6c:	a0 93 52 03 	sts	0x0352, r26	; 0x800352 <__brkval>
    2f70:	df 91       	pop	r29
    2f72:	cf 91       	pop	r28
    2f74:	08 95       	ret

00002f76 <memcpy>:
    2f76:	fb 01       	movw	r30, r22
    2f78:	dc 01       	movw	r26, r24
    2f7a:	02 c0       	rjmp	.+4      	; 0x2f80 <memcpy+0xa>
    2f7c:	01 90       	ld	r0, Z+
    2f7e:	0d 92       	st	X+, r0
    2f80:	41 50       	subi	r20, 0x01	; 1
    2f82:	50 40       	sbci	r21, 0x00	; 0
    2f84:	d8 f7       	brcc	.-10     	; 0x2f7c <memcpy+0x6>
    2f86:	08 95       	ret

00002f88 <strcmp>:
    2f88:	fb 01       	movw	r30, r22
    2f8a:	dc 01       	movw	r26, r24
    2f8c:	8d 91       	ld	r24, X+
    2f8e:	01 90       	ld	r0, Z+
    2f90:	80 19       	sub	r24, r0
    2f92:	01 10       	cpse	r0, r1
    2f94:	d9 f3       	breq	.-10     	; 0x2f8c <strcmp+0x4>
    2f96:	99 0b       	sbc	r25, r25
    2f98:	08 95       	ret

00002f9a <_exit>:
    2f9a:	f8 94       	cli

00002f9c <__stop_program>:
    2f9c:	ff cf       	rjmp	.-2      	; 0x2f9c <__stop_program>
